(dp0
(S'N325A'
p1
S'R218'
p2
S'ELMHURST AVE'
p3
tp4
(dp5
S'morningAvg'
p6
F4078.8
sS'eveningAvg'
p7
F23423.4
ss(S'R137'
p8
S'R031'
p9
S'34 ST-PENN STA'
p10
tp11
(dp12
g6
F7656.6
sg7
F4312.8
ss(S'R414'
p13
S'R162'
p14
S'ELDER AVE'
p15
tp16
(dp17
g6
F4186.8
sg7
F4666.8
ss(S'D012'
p18
S'R395'
p19
S'KINGS HIGHWAY'
p20
tp21
(dp22
g6
F1659.2
sg7
F2652.0
ss(S'R291'
p23
S'R183'
p24
S'BEDFORD PARK BL'
p25
tp26
(dp27
g6
F3507.2
sg7
F5231.2
ss(S'R232'
p28
S'R176'
p29
S'33 ST'
p30
tp31
(dp32
g6
F21282.8
sg7
F20232.8
ss(S'R730'
p33
S'R431'
p34
S'DYRE AVE'
p35
tp36
(dp37
g6
F2851.0
sg7
F3182.0
ss(S'G015'
p38
S'R312'
p39
S'W 8 ST-AQUARIUM'
p40
tp41
(dp42
g6
F102.4
sg7
F549.6
ss(S'N329A'
p43
S'R201'
p44
S'WOODHAVEN BLVD'
p45
tp46
(dp47
g6
F510.4
sg7
F4124.0
ss(S'R229'
p48
S'R143'
p49
S'28 ST'
p50
tp51
(dp52
g6
F18080.4
sg7
F35191.2
ss(S'N078'
p53
S'R175'
p54
S'14 ST'
p55
tp56
(dp57
g6
F57362.0
sg7
F78068.0
ss(S'R182'
p58
S'R035'
p59
S'168 ST-BROADWAY'
p60
tp61
(dp62
g6
F37156.0
sg7
F40748.4
ss(S'R418'
p63
S'R106'
p64
S'CASTLE HILL AVE'
p65
tp66
(dp67
g6
F5503.4
sg7
F7442.4
ss(S'R726'
p68
S'R329'
p69
S'MORRIS PARK'
p70
tp71
(dp72
g6
F549.0
sg7
F584.4
ss(S'H009'
p73
S'R235'
p74
S'BEDFORD AVE'
p75
tp76
(dp77
g6
F56672.2
sg7
F77225.2
ss(S'R168A'
p78
S'R168'
p79
S'96 ST'
p80
tp81
(dp82
g6
F14849.8
sg7
F23049.6
ss(S'A043'
p83
S'R462'
p84
S'CANAL ST'
p85
tp86
(dp87
g6
F45645.6
sg7
F68063.6
ss(S'E003'
p88
S'R369'
p89
S'FT HAMILTON PKY'
p90
tp91
(dp92
g6
F3193.4
sg7
F6048.0
ss(S'N022'
p93
S'R332'
p94
S'135 ST'
p95
tp96
(dp97
g6
F106.4
sg7
F1124.8
ss(S'N305'
p98
S'R017'
p99
S'LEXINGTON-53 ST'
p100
tp101
(dp102
g6
F84299.6
sg7
F58113.0
ss(S'C027'
p103
S'R216'
p104
S'BAY RIDGE-95 ST'
p105
tp106
(dp107
g6
F2576.0
sg7
F2818.0
ss(S'N209'
p108
S'R443'
p109
S'170 ST'
p110
tp111
(dp112
g6
F943.2
sg7
F1516.2
ss(S'N548'
p113
S'R420'
p114
S'DITMAS AVE'
p115
tp116
(dp117
g6
F1549.2
sg7
F1938.6
ss(S'JFK02'
p118
S'R535'
p119
S'JFK HOWARD BCH'
p120
tp121
(dp122
g6
F1563.6
sg7
F3525.6
ss(S'N213'
p123
S'R154'
p124
S'TREMONT AVE'
p125
tp126
(dp127
g6
F6184.8
sg7
F11293.2
ss(S'N218'
p128
S'R112'
p129
S'FORDHAM ROAD'
p130
tp131
(dp132
g6
F236.8
sg7
F4426.4
ss(S'R729'
p133
S'R292'
p134
S'BAYCHESTER AVE'
p135
tp136
(dp137
g6
F186.6
sg7
F1390.8
ss(S'H008'
p138
S'R248'
p139
S'1 AVE'
p140
tp141
(dp142
g6
F18512.0
sg7
F18875.0
ss(S'N046'
p143
S'R281'
p144
S'72 ST'
p145
tp146
(dp147
g6
F12555.0
sg7
F19255.0
ss(S'R118'
p148
S'R343'
p149
S'FRANKLIN ST'
p150
tp151
(dp152
g6
F3676.0
sg7
F1627.0
ss(S'R318'
p153
S'R408'
p154
S'SIMPSON ST'
p155
tp156
(dp157
g6
F705.0
sg7
F6201.0
ss(S'A077'
p158
S'R028'
p159
S'FULTON ST'
p160
tp161
(dp162
g6
F1521.6
sg7
F2516.8
ss(S'A031'
p163
S'R083'
p164
S'23 ST-5 AVE'
p165
tp166
(dp167
g6
F20062.8
sg7
F27760.8
ss(S'R314'
p168
S'R406'
p169
S'PROSPECT AVE'
p170
tp171
(dp172
g6
F309.6
sg7
F2947.8
ss(S'N067'
p173
S'R012'
p174
S'34 ST-PENN STA'
p175
tp176
(dp177
g6
F74667.4
sg7
F87937.6
ss(S'N120A'
p178
S'R153'
p179
S'UTICA AVE'
p180
tp181
(dp182
g6
F3214.4
sg7
F6379.8
ss(S'R329'
p183
S'R362'
p184
S'ALLERTON AVE'
p185
tp186
(dp187
g6
F1055.4
sg7
F2665.8
ss(S'R102'
p188
S'R304'
p189
S'RECTOR ST'
p190
tp191
(dp192
g6
F11047.0
sg7
F11514.0
ss(S'N051'
p193
S'R084'
p194
S'59 ST-COLUMBUS'
p195
tp196
(dp197
g6
F108849.6
sg7
F193682.4
ss(S'A010'
p198
S'R080'
p199
S'57 ST-7 AVE'
p200
tp201
(dp202
g6
F19617.6
sg7
F59400.0
ss(S'E016'
p203
S'R400'
p204
S'BAY 50 ST'
p205
tp206
(dp207
g6
F698.4
sg7
F1221.6
ss(S'R173'
p208
S'R159'
p209
S'116 ST-COLUMBIA'
p210
tp211
(dp212
g6
F13218.0
sg7
F30223.2
ss(S'R101'
p213
S'R001'
p214
S'SOUTH FERRY'
p215
tp216
(dp217
g6
F69990.0
sg7
F61188.0
ss(S'R412'
p218
S'R146'
p219
S'HUNTS POINT AVE'
p220
tp221
(dp222
g6
F12856.0
sg7
F16976.0
ss(S'A039'
p223
S'R085'
p224
S"8 ST-B'WAY NYU"
p225
tp226
(dp227
g6
F13762.8
sg7
F10981.2
ss(S'N501A'
p228
S'R020'
p229
S'47-50 ST-ROCK'
p230
tp231
(dp232
g6
F81436.8
sg7
F72607.2
ss(S'N319'
p233
S'R298'
p234
S'NORTHERN BLVD'
p235
tp236
(dp237
g6
F2211.6
sg7
F3469.2
ss(S'R403'
p238
S'R446'
p239
S'BROOK AVE'
p240
tp241
(dp242
g6
F1617.0
sg7
F818.4
ss(S'N183'
p243
S'R415'
p244
S'BROAD CHANNEL'
p245
tp246
(dp247
g6
F50.4
sg7
F91.2
ss(S'N312'
p248
S'R339'
p249
S'36 ST'
p250
tp251
(dp252
g6
F3205.0
sg7
F5615.0
ss(S'E015'
p253
S'R399'
p254
S'25 AVE'
p255
tp256
(dp257
g6
F464.4
sg7
F1759.2
ss(S'A049'
p258
S'R088'
p259
S'CORTLANDT ST'
p260
tp261
(dp262
g6
F6991.4
sg7
F6567.6
ss(S'A030'
p263
S'R083'
p264
S'23 ST-5 AVE'
p265
tp266
(dp267
g6
F24617.6
sg7
F58417.6
ss(S'R178'
p268
S'R273'
p269
S'145 ST'
p270
tp271
(dp272
g6
F1601.6
sg7
F5460.0
ss(S'R252'
p273
S'R180'
p274
S'103 ST'
p275
tp276
(dp277
g6
F13221.6
sg7
F12810.0
ss(S'R188'
p278
S'R037'
p279
S'207 ST'
p280
tp281
(dp282
g6
F2785.2
sg7
F9289.2
ss(S'N070'
p283
S'R012'
p284
S'34 ST-PENN STA'
p285
tp286
(dp287
g6
F18169.2
sg7
F27027.0
ss(S'R606'
p288
S'R225'
p289
S'HOYT ST'
p290
tp291
(dp292
g6
F4263.6
sg7
F12562.8
ss(S'A016'
p293
S'R081'
p294
S'49 ST-7 AVE'
p295
tp296
(dp297
g6
F7843.0
sg7
F7993.0
ss(S'R634'
p298
S'R069'
p299
S'NEW LOTS AVE'
p300
tp301
(dp302
g6
F2584.0
sg7
F4996.0
ss(S'R110'
p303
S'R027'
p304
S'WALL ST'
p305
tp306
(dp307
g6
F35492.8
sg7
F48795.2
ss(S'H005'
p308
S'R330'
p309
S'3 AVE'
p310
tp311
(dp312
g6
F3883.2
sg7
F2776.2
ss(S'R284'
p313
S'R243'
p314
S'170 ST'
p315
tp316
(dp317
g6
F4508.8
sg7
F7461.6
ss(S'R163'
p318
S'R166'
p319
S'79 ST'
p320
tp321
(dp322
g6
F2572.2
sg7
F4717.2
ss(S'R306'
p323
S'R207'
p324
S'135 ST'
p325
tp326
(dp327
g6
F2952.6
sg7
F18166.4
ss(S'R138'
p328
S'R293'
p329
S'34 ST-PENN STA'
p330
tp331
(dp332
g6
F55017.0
sg7
F106260.0
ss(S'PTH16'
p333
S'R550'
p334
S'LACKAWANNA'
p335
tp336
(dp337
g6
F14423.2
sg7
F9944.0
ss(S'N203'
p338
S'R195'
p339
S'161 ST-YANKEE'
p340
tp341
(dp342
g6
F10329.8
sg7
F27929.2
ss(S'J013'
p343
S'R380'
p344
S'GATES AVE'
p345
tp346
(dp347
g6
F873.6
sg7
F3174.6
ss(S'N121B'
p348
S'R438'
p349
S'RALPH AVE'
p350
tp351
(dp352
g6
F1500.8
sg7
F3444.0
ss(S'N185'
p353
S'R417'
p354
S'BEACH 98 ST'
p355
tp356
(dp357
g6
F574.0
sg7
F625.0
ss(S'B010'
p358
S'R412'
p359
S'BOTANIC GARDEN'
p360
tp361
(dp362
g6
F2065.6
sg7
F1372.0
ss(S'A085'
p363
S'R125'
p364
S'BROAD ST'
p365
tp366
(dp367
g6
F0.0
sg7
F0.0
ss(S'J022'
p368
S'R435'
p369
S'CLEVELAND ST'
p370
tp371
(dp372
g6
F792.4
sg7
F1000.0
ss(S'R257'
p373
S'R182'
p374
S'116 ST'
p375
tp376
(dp377
g6
F2660.0
sg7
F7774.4
ss(S'A038'
p378
S'R085'
p379
S"8 ST-B'WAY NYU"
p380
tp381
(dp382
g6
F5767.2
sg7
F25904.4
ss(S'R115'
p383
S'R029'
p384
S'PARK PLACE'
p385
tp386
(dp387
g6
F7433.6
sg7
F8605.6
ss(S'R608'
p388
S'R056'
p389
S'NEVINS ST'
p390
tp391
(dp392
g6
F6584.0
sg7
F11207.0
ss(S'N095A'
p393
S'R014'
p394
S'FULTON ST'
p395
tp396
(dp397
g6
F998.4
sg7
F2849.6
ss(S'K026'
p398
S'R100'
p399
S'METROPOLITAN AV'
p400
tp401
(dp402
g6
F4167.8
sg7
F7007.0
ss(S'A055'
p403
S'R227'
p404
S'RECTOR ST'
p405
tp406
(dp407
g6
F1118.0
sg7
F7137.0
ss(S'R512'
p408
S'R092'
p409
S'BROADWAY-31 ST'
p410
tp411
(dp412
g6
F7316.4
sg7
F14168.4
ss(S'R625'
p413
S'R062'
p414
S'CROWN HTS-UTICA'
p415
tp416
(dp417
g6
F4904.2
sg7
F8227.8
ss(S'N134'
p418
S'R385'
p419
S'ROCKAWAY BLVD'
p420
tp421
(dp422
g6
F286.4
sg7
F841.6
ss(S'J028'
p423
S'R004'
p424
S'ELDERTS LANE'
p425
tp426
(dp427
g6
F1939.0
sg7
F2690.0
ss(S'N182'
p428
S'R414'
p429
S'HOWARD BCH-JFK'
p430
tp431
(dp432
g6
F644.0
sg7
F2937.2
ss(S'B009'
p433
S'R411'
p434
S'PARK PLACE'
p435
tp436
(dp437
g6
F1558.0
sg7
F1740.0
ss(S'R246'
p438
S'R177'
p439
S'68ST-HUNTER COL'
p440
tp441
(dp442
g6
F88891.6
sg7
F153022.8
ss(S'R131'
p443
S'R190'
p444
S'23 ST'
p445
tp446
(dp447
g6
F3477.6
sg7
F12535.2
ss(S'J021'
p448
S'R434'
p449
S'VAN SICLEN AVE'
p450
tp451
(dp452
g6
F963.0
sg7
F1168.8
ss(S'R301'
p453
S'R323'
p454
S'110 ST-CPN'
p455
tp456
(dp457
g6
F9782.4
sg7
F15248.4
ss(S'R310'
p458
S'R053'
p459
S'149 ST-3 AVE'
p460
tp461
(dp462
g6
F7642.8
sg7
F24600.6
ss(S'R231A'
p463
S'R176'
p464
S'33 ST'
p465
tp466
(dp467
g6
F9027.0
sg7
F15450.0
ss(S'R285'
p468
S'R308'
p469
S'MT EDEN AVE'
p470
tp471
(dp472
g6
F3084.0
sg7
F4657.6
ss(S'R627'
p473
S'R063'
p474
S'SUTTER AVE'
p475
tp476
(dp477
g6
F1339.2
sg7
F3957.6
ss(S'D008'
p478
S'R392'
p479
S'18 AVE'
p480
tp481
(dp482
g6
F2452.8
sg7
F3247.2
ss(S'S101A'
p483
S'R070'
p484
S'ST. GEORGE'
p485
tp486
(dp487
g6
F26.0
sg7
F62441.6
ss(S'N340'
p488
S'R115'
p489
S'169 ST'
p490
tp491
(dp492
g6
F4115.2
sg7
F5689.6
ss(S'N333B'
p493
S'R141'
p494
S'FOREST HILLS-71'
p495
tp496
(dp497
g6
F10656.0
sg7
F19890.0
ss(S'N301'
p498
S'R113'
p499
S'7 AVE-53 ST'
p500
tp501
(dp502
g6
F18315.0
sg7
F24546.0
ss(S'R164'
p503
S'R167'
p504
S'86 ST'
p505
tp506
(dp507
g6
F6944.4
sg7
F13888.8
ss(S'R637'
p508
S'R451'
p509
S'WINTHROP ST'
p510
tp511
(dp512
g6
F1266.4
sg7
F6289.6
ss(S'N544'
p513
S'R289'
p514
S'FT HAMILTON PKY'
p515
tp516
(dp517
g6
F120.0
sg7
F1892.8
ss(S'B015'
p518
S'R098'
p519
S'CHURCH AVE'
p520
tp521
(dp522
g6
F3669.4
sg7
F6046.6
ss(S'R247'
p523
S'R178'
p524
S'77 ST'
p525
tp526
(dp527
g6
F44308.6
sg7
F13122.2
ss(S'N010'
p528
S'R126'
p529
S'175 ST'
p530
tp531
(dp532
g6
F8685.6
sg7
F26664.0
ss(S'N127'
p533
S'R442'
p534
S'SHEPHERD AVE'
p535
tp536
(dp537
g6
F654.6
sg7
F1311.0
ss(S'C008'
p538
S'R099'
p539
S'DEKALB AVE'
p540
tp541
(dp542
g6
F37150.4
sg7
F73878.0
ss(S'N327'
p543
S'R254'
p544
S'GRAND AV-NEWTON'
p545
tp546
(dp547
g6
F13502.4
sg7
F26788.8
ss(S'N071'
p548
S'R013'
p549
S'34 ST-PENN STA'
p550
tp551
(dp552
g6
F21793.2
sg7
F16458.0
ss(S'A071'
p553
S'R044'
p554
S'CHAMBERS ST'
p555
tp556
(dp557
g6
F2835.6
sg7
F12194.4
ss(S'R332'
p558
S'R365'
p559
S'219 ST'
p560
tp561
(dp562
g6
F508.8
sg7
F1320.0
ss(S'N135'
p563
S'R385'
p564
S'ROCKAWAY BLVD'
p565
tp566
(dp567
g6
F180.0
sg7
F646.4
ss(S'E009'
p568
S'R370'
p569
S'71 ST'
p570
tp571
(dp572
g6
F1085.0
sg7
F2832.0
ss(S'PTH08'
p573
S'R540'
p574
S'PATH WTC'
p575
tp576
(dp577
g6
F268531.2
sg7
F435623.4
ss(S'N545'
p578
S'R204'
p579
S'CHURCH AVE'
p580
tp581
(dp582
g6
F612.0
sg7
F2578.0
ss(S'N011'
p583
S'R126'
p584
S'175 ST'
p585
tp586
(dp587
g6
F520.8
sg7
F2331.2
ss(S'R518'
p588
S'R261'
p589
S'40 ST-LOWERY ST'
p590
tp591
(dp592
g6
F8448.0
sg7
F16161.6
ss(S'N045'
p593
S'R187'
p594
S'81 ST-MUSEUM'
p595
tp596
(dp597
g6
F7861.0
sg7
F6969.0
ss(S'N108'
p598
S'R217'
p599
S'HOYT/SCHERMER'
p600
tp601
(dp602
g6
F15325.0
sg7
F18723.0
ss(S'C021'
p603
S'R212'
p604
S'59 ST'
p605
tp606
(dp607
g6
F4071.2
sg7
F9487.2
ss(S'R322'
p608
S'R386'
p609
S'174 ST'
p610
tp611
(dp612
g6
F513.0
sg7
F1366.2
ss(S'H040'
p613
S'R376'
p614
S'EAST 105 ST'
p615
tp616
(dp617
g6
F1690.4
sg7
F2572.8
ss(S'R262B'
p618
S'R195'
p619
S'161 ST-YANKEE'
p620
tp621
(dp622
g6
F492.0
sg7
F1042.8
ss(S'N604'
p623
S'R342'
p624
S'JAMAICA-VAN WYC'
p625
tp626
(dp627
g6
F4753.0
sg7
F5933.2
ss(S'R622'
p628
S'R123'
p629
S'FRANKLIN AVE'
p630
tp631
(dp632
g6
F8342.4
sg7
F9308.8
ss(S'K025'
p633
S'R404'
p634
S'FRESH POND ROAD'
p635
tp636
(dp637
g6
F3724.8
sg7
F4780.8
ss(S'R120'
p638
S'R320'
p639
S'CANAL ST'
p640
tp641
(dp642
g6
F5151.0
sg7
F1662.0
ss(S'PTH07'
p643
S'R550'
p644
S'CITY / BUS'
p645
tp646
(dp647
g6
F70560.0
sg7
F29694.0
ss(S'N196'
p648
S'R285'
p649
S'FAR ROCKAWAY'
p650
tp651
(dp652
g6
F5780.6
sg7
F8038.8
ss(S'H026'
p653
S'R137'
p654
S'MYRTLE AVE'
p655
tp656
(dp657
g6
F5877.2
sg7
F14102.2
ss(S'J003'
p658
S'R352'
p659
S'HEWES ST'
p660
tp661
(dp662
g6
F453.0
sg7
F1914.0
ss(S'E001'
p663
S'R368'
p664
S'9 AVE'
p665
tp666
(dp667
g6
F4258.8
sg7
F5747.0
ss(S'R204A'
p668
S'R043'
p669
S'WALL ST'
p670
tp671
(dp672
g6
F2739.2
sg7
F293.6
ss(S'R143'
p673
S'R032'
p674
S'42 ST-TIMES SQ'
p675
tp676
(dp677
g6
F57156.8
sg7
F62686.4
ss(S'R419'
p678
S'R326'
p679
S'ZEREGA AVE'
p680
tp681
(dp682
g6
F1842.0
sg7
F1922.4
ss(S'R527'
p683
S'R122'
p684
S'90 ST-ELMHURST'
p685
tp686
(dp687
g6
F9358.2
sg7
F25929.0
ss(S'K017'
p688
S'R401'
p689
S'CENTRAL AVE'
p690
tp691
(dp692
g6
F969.6
sg7
F1842.4
ss(S'R610'
p693
S'R057'
p694
S'BARCLAYS CENTER'
p695
tp696
(dp697
g6
F78100.0
sg7
F127208.4
ss(S'N307'
p698
S'R359'
p699
S'COURT SQ-23 ST'
p700
tp701
(dp702
g6
F5866.0
sg7
F15930.0
ss(S'N557'
p703
S'R130'
p704
S'KINGS HIGHWAY'
p705
tp706
(dp707
g6
F1804.8
sg7
F1902.4
ss(S'D006'
p708
S'R398'
p709
S'NEW UTRECHT AVE'
p710
tp711
(dp712
g6
F416.8
sg7
F1071.2
ss(S'N125'
p713
S'R440'
p714
S'LIBERTY AVE'
p715
tp716
(dp717
g6
F787.8
sg7
F1345.8
ss(S'N034'
p718
S'R334'
p719
S'CATHEDRL-110 ST'
p720
tp721
(dp722
g6
F951.0
sg7
F3479.0
ss(S'A061'
p723
S'R142'
p724
S'ESSEX ST'
p725
tp726
(dp727
g6
F8873.2
sg7
F15103.2
ss(S'N549'
p728
S'R242'
p729
S'18 AVE'
p730
tp731
(dp732
g6
F2060.4
sg7
F2137.8
ss(S'N118'
p733
S'R199'
p734
S'KINGSTON-THROOP'
p735
tp736
(dp737
g6
F1312.2
sg7
F1627.8
ss(S'H035'
p738
S'R348'
p739
S'ATLANTIC AVE'
p740
tp741
(dp742
g6
F418.8
sg7
F1419.0
ss(S'R141'
p743
S'R031'
p744
S'34 ST-PENN STA'
p745
tp746
(dp747
g6
F23448.6
sg7
F25232.2
ss(S'R509'
p748
S'R121'
p749
S'QUEENSBORO PLZ'
p750
tp751
(dp752
g6
F6841.2
sg7
F26842.8
ss(S'N087'
p753
S'R282'
p754
S'SPRING ST'
p755
tp756
(dp757
g6
F1863.0
sg7
F9101.0
ss(S'N040'
p758
S'R251'
p759
S'96 ST'
p760
tp761
(dp762
g6
F4162.8
sg7
F4351.2
ss(S'N129'
p763
S'R382'
p764
S'GRANT AVE'
p765
tp766
(dp767
g6
F2077.6
sg7
F3335.2
ss(S'N210'
p768
S'R253'
p769
S'174-175 ST'
p770
tp771
(dp772
g6
F411.0
sg7
F1977.0
ss(S'R245'
p773
S'R051'
p774
S'59 ST'
p775
tp776
(dp777
g6
F15347.2
sg7
F28760.0
ss(S'A064'
p778
S'R311'
p779
S'BOWERY'
p780
tp781
(dp782
g6
F2607.6
sg7
F3744.0
ss(S'B017'
p783
S'R262'
p784
S'BEVERLEY ROAD'
p785
tp786
(dp787
g6
F509.4
sg7
F1210.8
ss(S'H028'
p788
S'R266'
p789
S'HALSEY ST'
p790
tp791
(dp792
g6
F985.0
sg7
F5375.0
ss(S'E013'
p793
S'R373'
p794
S'20 AVE'
p795
tp796
(dp797
g6
F663.6
sg7
F2190.6
ss(S'R304'
p798
S'R206'
p799
S'125 ST'
p800
tp801
(dp802
g6
F3805.0
sg7
F7375.0
ss(S'N012'
p803
S'R035'
p804
S'168 ST-BROADWAY'
p805
tp806
(dp807
g6
F1520.4
sg7
F10345.2
ss(S'N223'
p808
S'R156'
p809
S'BEDFORD PARK BL'
p810
tp811
(dp812
g6
F136.0
sg7
F1038.4
ss(S'A058'
p813
S'R001'
p814
S'WHITEHALL ST'
p815
tp816
(dp817
g6
F13141.8
sg7
F15184.4
ss(S'R217A'
p818
S'R194'
p819
S'BLEECKER ST'
p820
tp821
(dp822
g6
F13453.2
sg7
F46605.6
ss(S'R410'
p823
S'R450'
p824
S'LONGWOOD AVE'
p825
tp826
(dp827
g6
F507.6
sg7
F1366.2
ss(S'R236'
p828
S'R045'
p829
S'42 ST-GRD CNTRL'
p830
tp831
(dp832
g6
F77781.2
sg7
F138157.6
ss(S'N314'
p833
S'R238'
p834
S'STEINWAY ST'
p835
tp836
(dp837
g6
F2348.0
sg7
F6936.0
ss(S'B024A'
p838
S'R211'
p839
S'KINGS HIGHWAY'
p840
tp841
(dp842
g6
F5594.0
sg7
F4865.0
ss(S'J020'
p843
S'R433'
p844
S'ALABAMA AVE'
p845
tp846
(dp847
g6
F1236.6
sg7
F1812.0
ss(S'N195'
p848
S'R358'
p849
S'BEACH 25 ST'
p850
tp851
(dp852
g6
F1104.0
sg7
F1159.0
ss(S'R200A'
p853
S'R041'
p854
S'BOWLING GREEN'
p855
tp856
(dp857
g6
F32226.0
sg7
F94274.0
ss(S'N130'
p858
S'R383'
p859
S'HUDSON-80 ST'
p860
tp861
(dp862
g6
F288.0
sg7
F705.6
ss(S'H015'
p863
S'R250'
p864
S'GRAND ST'
p865
tp866
(dp867
g6
F2657.4
sg7
F4077.0
ss(S'N062A'
p868
S'R010'
p869
S'42 ST-PA BUS TE'
p870
tp871
(dp872
g6
F29516.0
sg7
F66120.0
ss(S'A006'
p873
S'R079'
p874
S'5 AVE-59 ST'
p875
tp876
(dp877
g6
F23604.8
sg7
F41280.0
ss(S'R132'
p878
S'R190'
p879
S'23 ST'
p880
tp881
(dp882
g6
F9199.2
sg7
F6670.4
ss(S'R185'
p883
S'R274'
p884
S'191 ST'
p885
tp886
(dp887
g6
F5859.2
sg7
F6771.2
ss(S'N528'
p888
S'R257'
p889
S'EAST BROADWAY'
p890
tp891
(dp892
g6
F7148.8
sg7
F20640.0
ss(S'J002'
p893
S'R460'
p894
S'MARCY AVE'
p895
tp896
(dp897
g6
F7489.6
sg7
F11440.0
ss(S'C023'
p898
S'R213'
p899
S'BAY RIDGE AVE'
p900
tp901
(dp902
g6
F2510.4
sg7
F7551.6
ss(S'N409'
p903
S'R268'
p904
S'METROPOLITAN AV'
p905
tp906
(dp907
g6
F4331.6
sg7
F14621.6
ss(S'R111'
p908
S'R027'
p909
S'WALL ST'
p910
tp911
(dp912
g6
F29458.8
sg7
F31966.8
ss(S'N318'
p913
S'R298'
p914
S'NORTHERN BLVD'
p915
tp916
(dp917
g6
F1034.4
sg7
F2057.4
ss(S'N039'
p918
S'R251'
p919
S'96 ST'
p920
tp921
(dp922
g6
F3464.0
sg7
F11923.0
ss(S'R308'
p923
S'R344'
p924
S'145 ST'
p925
tp926
(dp927
g6
F99.0
sg7
F2132.4
ss(S'A060'
p928
S'R001'
p929
S'WHITEHALL ST'
p930
tp931
(dp932
g6
F20856.0
sg7
F30480.0
ss(S'N075'
p933
S'R111'
p934
S'23 ST'
p935
tp936
(dp937
g6
F1256.8
sg7
F9064.8
ss(S'N111'
p938
S'R284'
p939
S'CLINTON-WASH AV'
p940
tp941
(dp942
g6
F1788.6
sg7
F2566.8
ss(S'R133'
p943
S'R272'
p944
S'28 ST'
p945
tp946
(dp947
g6
F5276.8
sg7
F17232.8
ss(S'N558'
p948
S'R130'
p949
S'KINGS HIGHWAY'
p950
tp951
(dp952
g6
F438.4
sg7
F551.2
ss(S'J031'
p953
S'R006'
p954
S'WOODHAVEN BLVD'
p955
tp956
(dp957
g6
F1045.6
sg7
F2700.8
ss(S'H038'
p958
S'R350'
p959
S'LIVONIA AVE'
p960
tp961
(dp962
g6
F2028.0
sg7
F2854.0
ss(S'R148'
p963
S'R033'
p964
S'42 ST-TIMES SQ'
p965
tp966
(dp967
g6
F26339.2
sg7
F45792.0
ss(S'R160'
p968
S'R164'
p969
S'66 ST-LINCOLN'
p970
tp971
(dp972
g6
F9657.2
sg7
F27697.6
ss(S'B023'
p973
S'R211'
p974
S'KINGS HIGHWAY'
p975
tp976
(dp977
g6
F2224.0
sg7
F5886.0
ss(S'N607'
p978
S'R025'
p979
S'JAMAICA CENTER'
p980
tp981
(dp982
g6
F22000.0
sg7
F11976.0
ss(S'H017'
p983
S'R265'
p984
S'MONTROSE AVE'
p985
tp986
(dp987
g6
F1879.2
sg7
F4576.8
ss(S'N035'
p988
S'R334'
p989
S'CATHEDRL-110 ST'
p990
tp991
(dp992
g6
F1479.6
sg7
F2775.6
ss(S'N554'
p993
S'R423'
p994
S'AVE N'
p995
tp996
(dp997
g6
F220.8
sg7
F708.0
ss(S'R534'
p998
S'R055'
p999
S'MAIN ST'
p1000
tp1001
(dp1002
g6
F26835.6
sg7
F34394.8
ss(S'N013'
p1003
S'R035'
p1004
S'168 ST-BROADWAY'
p1005
tp1006
(dp1007
g6
F8121.4
sg7
F12923.4
ss(S'K024'
p1008
S'R403'
p1009
S'FOREST AVE'
p1010
tp1011
(dp1012
g6
F675.6
sg7
F1110.0
ss(S'B019'
p1013
S'R149'
p1014
S'NEWKIRK PLAZA'
p1015
tp1016
(dp1017
g6
F6525.0
sg7
F7497.0
ss(S'R249'
p1018
S'R179'
p1019
S'86 ST'
p1020
tp1021
(dp1022
g6
F125514.0
sg7
F52716.0
ss(S'PTH19'
p1023
S'R549'
p1024
S'NEWARK C'
p1025
tp1026
(dp1027
g6
F2556.8
sg7
F2080.8
ss(S'N507'
p1028
S'R023'
p1029
S'34 ST-HERALD SQ'
p1030
tp1031
(dp1032
g6
F90263.8
sg7
F79180.2
ss(S'R405'
p1033
S'R447'
p1034
S'CYPRESS AVE'
p1035
tp1036
(dp1037
g6
F786.0
sg7
F599.4
ss(S'R158'
p1038
S'R084'
p1039
S'59 ST-COLUMBUS'
p1040
tp1041
(dp1042
g6
F57232.0
sg7
F70338.8
ss(S'N224'
p1043
S'R157'
p1044
S'NORWOOD-205 ST'
p1045
tp1046
(dp1047
g6
F1899.0
sg7
F3410.0
ss(S'A066'
p1048
S'R118'
p1049
S'CANAL ST'
p1050
tp1051
(dp1052
g6
F4767.0
sg7
F14464.8
ss(S'N400A'
p1053
S'R359'
p1054
S'COURT SQ'
p1055
tp1056
(dp1057
g6
F46919.6
sg7
F70963.2
ss(S'R206'
p1058
S'R014'
p1059
S'FULTON ST'
p1060
tp1061
(dp1062
g6
F33003.0
sg7
F12123.0
ss(S'B025'
p1063
S'R150'
p1064
S'AVE U'
p1065
tp1066
(dp1067
g6
F2143.2
sg7
F6452.4
ss(S'N076'
p1068
S'R111'
p1069
S'23 ST'
p1070
tp1071
(dp1072
g6
F13500.0
sg7
F27267.0
ss(S'R241A'
p1073
S'R048'
p1074
S'42 ST-GRD CNTRL'
p1075
tp1076
(dp1077
g6
F23153.0
sg7
F37227.0
ss(S'N414'
p1078
S'R316'
p1079
S'FLUSHING AVE'
p1080
tp1081
(dp1082
g6
F937.8
sg7
F910.8
ss(S'N122'
p1083
S'R439'
p1084
S'ROCKAWAY AVE'
p1085
tp1086
(dp1087
g6
F996.6
sg7
F1571.4
ss(S'N414A'
p1088
S'R316'
p1089
S'FLUSHING AVE'
p1090
tp1091
(dp1092
g6
F1242.0
sg7
F2189.0
ss(S'R632'
p1093
S'R067'
p1094
S'PENNSYLVANIA AV'
p1095
tp1096
(dp1097
g6
F806.4
sg7
F3779.4
ss(S'J035'
p1098
S'R008'
p1099
S'111 ST'
p1100
tp1101
(dp1102
g6
F1157.6
sg7
F1862.4
ss(S'R210'
p1103
S'R044'
p1104
S'BROOKLYN BRIDGE'
p1105
tp1106
(dp1107
g6
F77832.0
sg7
F68827.2
ss(S'J012'
p1108
S'R379'
p1109
S'KOSCIUSZKO ST'
p1110
tp1111
(dp1112
g6
F826.2
sg7
F2429.4
ss(S'N002A'
p1113
S'R173'
p1114
S'INWOOD-207 ST'
p1115
tp1116
(dp1117
g6
F1685.0
sg7
F4076.0
ss(S'H041'
p1118
S'R152'
p1119
S'ROCKAWAY PKY'
p1120
tp1121
(dp1122
g6
F4096.8
sg7
F18480.6
ss(S'N546'
p1123
S'R204'
p1124
S'CHURCH AVE'
p1125
tp1126
(dp1127
g6
F7565.4
sg7
F12618.0
ss(S'N536'
p1128
S'R270'
p1129
S'SMITH-9 ST'
p1130
tp1131
(dp1132
g6
F8671.2
sg7
F9492.0
ss(S'N501'
p1133
S'R020'
p1134
S'47-50 ST-ROCK'
p1135
tp1136
(dp1137
g6
F145380.0
sg7
F144078.0
ss(S'N543'
p1138
S'R289'
p1139
S'FT HAMILTON PKY'
p1140
tp1141
(dp1142
g6
F467.4
sg7
F1090.2
ss(S'N603'
p1143
S'R303'
p1144
S'21 ST'
p1145
tp1146
(dp1147
g6
F9027.6
sg7
F16077.6
ss(S'H003'
p1148
S'R163'
p1149
S'6 AVE'
p1150
tp1151
(dp1152
g6
F4530.0
sg7
F11394.0
ss(S'N006A'
p1153
S'R280'
p1154
S'190 ST'
p1155
tp1156
(dp1157
g6
F1038.6
sg7
F2541.0
ss(S'N306'
p1158
S'R017'
p1159
S'LEXINGTON-53 ST'
p1160
tp1161
(dp1162
g6
F137185.4
sg7
F150755.0
ss(S'R221'
p1163
S'R170'
p1164
S'14 ST-UNION SQ'
p1165
tp1166
(dp1167
g6
F87799.2
sg7
F126009.6
ss(S'PTH01'
p1168
S'R549'
p1169
S'NEWARK HW BMEBE'
p1170
tp1171
(dp1172
g6
F5485.2
sg7
F1724.8
ss(S'G001'
p1173
S'R151'
p1174
S'STILLWELL AVE'
p1175
tp1176
(dp1177
g6
F23356.8
sg7
F39122.4
ss(S'N138'
p1178
S'R355'
p1179
S'GREENWOOD-111'
p1180
tp1181
(dp1182
g6
F71.2
sg7
F223.2
ss(S'N553'
p1183
S'R422'
p1184
S'22 AVE-BAY PKY'
p1185
tp1186
(dp1187
g6
F363.6
sg7
F643.2
ss(S'J034'
p1188
S'R007'
p1189
S'104 ST'
p1190
tp1191
(dp1192
g6
F604.8
sg7
F1166.4
ss(S'R331'
p1193
S'R364'
p1194
S'GUN HILL ROAD'
p1195
tp1196
(dp1197
g6
F7288.8
sg7
F7911.6
ss(S'R515'
p1198
S'R095'
p1199
S'DITMARS BL-31 S'
p1200
tp1201
(dp1202
g6
F10275.2
sg7
F20097.6
ss(S'H037'
p1203
S'R349'
p1204
S'SUTTER AVE'
p1205
tp1206
(dp1207
g6
F965.2
sg7
F1442.0
ss(S'N016A'
p1208
S'R296'
p1209
S'163 ST-AMSTERDM'
p1210
tp1211
(dp1212
g6
F1348.8
sg7
F3752.4
ss(S'R635'
p1213
S'R277'
p1214
S'PRESIDENT ST'
p1215
tp1216
(dp1217
g6
F2339.4
sg7
F2275.2
ss(S'N212'
p1218
S'R253'
p1219
S'174-175 ST'
p1220
tp1221
(dp1222
g6
F1437.6
sg7
F2994.0
ss(S'J030'
p1223
S'R005'
p1224
S'FOREST PARKWAY'
p1225
tp1226
(dp1227
g6
F851.2
sg7
F1793.6
ss(S'N023'
p1228
S'R332'
p1229
S'135 ST'
p1230
tp1231
(dp1232
g6
F1680.8
sg7
F1771.2
ss(S'N329'
p1233
S'R201'
p1234
S'WOODHAVEN BLVD'
p1235
tp1236
(dp1237
g6
F15478.4
sg7
F22785.0
ss(S'R617'
p1238
S'R058'
p1239
S'BERGEN ST'
p1240
tp1241
(dp1242
g6
F727.2
sg7
F1371.6
ss(S'A083'
p1243
S'R125'
p1244
S'BROAD ST'
p1245
tp1246
(dp1247
g6
F4728.0
sg7
F6282.0
ss(S'R619'
p1248
S'R059'
p1249
S'GRAND ARMY PLAZ'
p1250
tp1251
(dp1252
g6
F2076.8
sg7
F7456.8
ss(S'A011'
p1253
S'R080'
p1254
S'57 ST-7 AVE'
p1255
tp1256
(dp1257
g6
F-16261.2
sg7
F-5989.2
ss(S'H012'
p1258
S'R268'
p1259
S'LORIMER ST'
p1260
tp1261
(dp1262
g6
F1028.0
sg7
F5267.0
ss(S'C011'
p1263
S'R231'
p1264
S'UNION ST'
p1265
tp1266
(dp1267
g6
F1418.4
sg7
F1504.2
ss(S'N338B'
p1268
S'R128'
p1269
S'SUTPHIN BLVD'
p1270
tp1271
(dp1272
g6
F2298.0
sg7
F2560.8
ss(S'R114'
p1273
S'R028'
p1274
S'FULTON ST'
p1275
tp1276
(dp1277
g6
F3431.2
sg7
F1132.8
ss(S'H032'
p1278
S'R295'
p1279
S'WILSON AVE'
p1280
tp1281
(dp1282
g6
F1302.6
sg7
F2362.2
ss(S'A069'
p1283
S'R044'
p1284
S'CHAMBERS ST'
p1285
tp1286
(dp1287
g6
F11382.0
sg7
F19343.8
ss(S'R316'
p1288
S'R407'
p1289
S'INTERVALE-163'
p1290
tp1291
(dp1292
g6
F1585.2
sg7
F1874.4
ss(S'R644'
p1293
S'R135'
p1294
S'NEWKIRK AVE'
p1295
tp1296
(dp1297
g6
F2616.0
sg7
F217.0
ss(S'N335'
p1298
S'R158'
p1299
S'UNION TPK-KEW G'
p1300
tp1301
(dp1302
g6
F13649.4
sg7
F9016.2
ss(S'R333'
p1303
S'R366'
p1304
S'225 ST'
p1305
tp1306
(dp1307
g6
F667.2
sg7
F1894.8
ss(S'E005'
p1308
S'R247'
p1309
S'55 ST'
p1310
tp1311
(dp1312
g6
F862.8
sg7
F1677.0
ss(S'R521'
p1313
S'R327'
p1314
S'52 ST-LINCOLN'
p1315
tp1316
(dp1317
g6
F4177.2
sg7
F6409.2
ss(S'R408'
p1318
S'R449'
p1319
S'E 149 ST'
p1320
tp1321
(dp1322
g6
F682.8
sg7
F1287.0
ss(S'A013'
p1323
S'R081'
p1324
S'49 ST-7 AVE'
p1325
tp1326
(dp1327
g6
F21696.0
sg7
F28069.2
ss(S'R202'
p1328
S'R042'
p1329
S'BOWLING GREEN'
p1330
tp1331
(dp1332
g6
F33444.0
sg7
F13064.4
ss(S'J024'
p1333
S'R437'
p1334
S'CRESCENT ST'
p1335
tp1336
(dp1337
g6
F1673.4
sg7
F1820.4
ss(S'N217'
p1338
S'R112'
p1339
S'FORDHAM ROAD'
p1340
tp1341
(dp1342
g6
F5085.6
sg7
F9856.8
ss(S'R612'
p1343
S'R057'
p1344
S'BARCLAYS CENTER'
p1345
tp1346
(dp1347
g6
F21337.6
sg7
F42022.4
ss(S'N530'
p1348
S'R301'
p1349
S'YORK ST'
p1350
tp1351
(dp1352
g6
F6843.6
sg7
F11112.0
ss(S'R192'
p1353
S'R039'
p1354
S'MARBLE HILL-225'
p1355
tp1356
(dp1357
g6
F937.0
sg7
F6433.0
ss(S'R319'
p1358
S'R409'
p1359
S'FREEMAN ST'
p1360
tp1361
(dp1362
g6
F1295.4
sg7
F621.0
ss(S'N559'
p1363
S'R425'
p1364
S'AVE U'
p1365
tp1366
(dp1367
g6
F617.6
sg7
F1548.8
ss(S'JFK03'
p1368
S'R536'
p1369
S'JFK JAMAICA CT1'
p1370
tp1371
(dp1372
g6
F13324.0
sg7
F19558.0
ss(S'A034'
p1373
S'R170'
p1374
S'14 ST-UNION SQ'
p1375
tp1376
(dp1377
g6
F58476.6
sg7
F84517.2
ss(S'C004'
p1378
S'R089'
p1379
S'JAY ST-METROTEC'
p1380
tp1381
(dp1382
g6
F694.4
sg7
F2301.6
ss(S'R623'
p1383
S'R061'
p1384
S'NOSTRAND AVE'
p1385
tp1386
(dp1387
g6
F2009.4
sg7
F2819.4
ss(S'N415'
p1388
S'R286'
p1389
S'MYRTLE-WILLOUGH'
p1390
tp1391
(dp1392
g6
F672.0
sg7
F1470.6
ss(S'N523'
p1393
S'R300'
p1394
S'2 AVE'
p1395
tp1396
(dp1397
g6
F8814.4
sg7
F11816.0
ss(S'N181'
p1398
S'R357'
p1399
S'AQUEDUCT-N CNDT'
p1400
tp1401
(dp1402
g6
F2194.0
sg7
F834.0
ss(S'R334'
p1403
S'R367'
p1404
S'233 ST'
p1405
tp1406
(dp1407
g6
F1243.0
sg7
F3971.0
ss(S'N315'
p1408
S'R238'
p1409
S'STEINWAY ST'
p1410
tp1411
(dp1412
g6
F5408.0
sg7
F9028.8
ss(S'N117'
p1413
S'R198'
p1414
S'NOSTRAND AVE'
p1415
tp1416
(dp1417
g6
F3099.6
sg7
F5058.0
ss(S'E012'
p1418
S'R372'
p1419
S'18 AVE'
p1420
tp1421
(dp1422
g6
F621.6
sg7
F2880.0
ss(S'N513'
p1423
S'R163'
p1424
S'14 ST-6 AVE'
p1425
tp1426
(dp1427
g6
F4068.6
sg7
F4225.2
ss(S'R165'
p1428
S'R167'
p1429
S'86 ST'
p1430
tp1431
(dp1432
g6
F11228.0
sg7
F8673.0
ss(S'N208'
p1433
S'R443'
p1434
S'170 ST'
p1435
tp1436
(dp1437
g6
F1164.8
sg7
F3007.2
ss(S'R112A'
p1438
S'R027'
p1439
S'WALL ST'
p1440
tp1441
(dp1442
g6
F8182.8
sg7
F7761.0
ss(S'N562'
p1443
S'R426'
p1444
S'NEPTUNE AVE'
p1445
tp1446
(dp1447
g6
F231.0
sg7
F799.2
ss(S'R262'
p1448
S'R195'
p1449
S'161 ST-YANKEE'
p1450
tp1451
(dp1452
g6
F8022.4
sg7
F18145.6
ss(S'N340A'
p1453
S'R115'
p1454
S'169 ST'
p1455
tp1456
(dp1457
g6
F3684.8
sg7
F7065.8
ss(S'N405'
p1458
S'R239'
p1459
S'GREENPOINT AVE'
p1460
tp1461
(dp1462
g6
F13202.0
sg7
F25968.0
ss(S'N017'
p1463
S'R331'
p1464
S'155 ST'
p1465
tp1466
(dp1467
g6
F1249.0
sg7
F1926.0
ss(S'R326'
p1468
S'R389'
p1469
S'BRONX PARK EAST'
p1470
tp1471
(dp1472
g6
F372.0
sg7
F1165.8
ss(S'N137'
p1473
S'R354'
p1474
S'OXFORD-104 ST'
p1475
tp1476
(dp1477
g6
F187.8
sg7
F463.8
ss(S'D016'
p1478
S'R397'
p1479
S'86 ST'
p1480
tp1481
(dp1482
g6
F300.6
sg7
F1145.4
ss(S'R130'
p1483
S'R321'
p1484
S'18 ST'
p1485
tp1486
(dp1487
g6
F6706.0
sg7
F4250.0
ss(S'D011'
p1488
S'R394'
p1489
S'BAY PKY-22 AVE'
p1490
tp1491
(dp1492
g6
F489.6
sg7
F1129.6
ss(S'R242A'
p1493
S'R049'
p1494
S'51 ST'
p1495
tp1496
(dp1497
g6
F3.0
sg7
F0.0
ss(S'H039'
p1498
S'R375'
p1499
S'NEW LOTS AVE'
p1500
tp1501
(dp1502
g6
F1827.6
sg7
F2494.2
ss(S'N060'
p1503
S'R010'
p1504
S'42 ST-PA BUS TE'
p1505
tp1506
(dp1507
g6
F23329.8
sg7
F33987.6
ss(S'N205'
p1508
S'R195'
p1509
S'161 ST-YANKEE'
p1510
tp1511
(dp1512
g6
F4152.8
sg7
F5122.4
ss(S'N221'
p1513
S'R155'
p1514
S'KINGSBRIDGE RD'
p1515
tp1516
(dp1517
g6
F1348.0
sg7
F2066.0
ss(S'N112A'
p1518
S'R284'
p1519
S'CLINTON-WASH AV'
p1520
tp1521
(dp1522
g6
F1399.0
sg7
F2980.0
ss(S'R409'
p1523
S'R449'
p1524
S'E 149 ST'
p1525
tp1526
(dp1527
g6
F980.4
sg7
F817.2
ss(S'J009'
p1528
S'R378'
p1529
S'MYRTLE AVE'
p1530
tp1531
(dp1532
g6
F3608.8
sg7
F7753.6
ss(S'N417'
p1533
S'R269'
p1534
S'BEDFORD/NOSTRAN'
p1535
tp1536
(dp1537
g6
F1333.8
sg7
F2719.2
ss(S'N116'
p1538
S'R198'
p1539
S'NOSTRAND AVE'
p1540
tp1541
(dp1542
g6
F3791.2
sg7
F8824.8
ss(S'R205A'
p1543
S'R014'
p1544
S'FULTON ST'
p1545
tp1546
(dp1547
g6
F10238.4
sg7
F44571.2
ss(S'R503'
p1548
S'R276'
p1549
S'VERNON/JACKSON'
p1550
tp1551
(dp1552
g6
F5990.0
sg7
F5553.0
ss(S'R602'
p1553
S'R108'
p1554
S'BOROUGH HALL/CT'
p1555
tp1556
(dp1557
g6
F22979.6
sg7
F43688.4
ss(S'R528'
p1558
S'R097'
p1559
S'JUNCTION BLVD'
p1560
tp1561
(dp1562
g6
F22140.0
sg7
F38263.2
ss(S'N336'
p1563
S'R158'
p1564
S'UNION TPK-KEW G'
p1565
tp1566
(dp1567
g6
F25022.8
sg7
F14018.4
ss(S'R160A'
p1568
S'R164'
p1569
S'66 ST-LINCOLN'
p1570
tp1571
(dp1572
g6
F8436.4
sg7
F12143.6
ss(S'B012'
p1573
S'R196'
p1574
S'PROSPECT PARK'
p1575
tp1576
(dp1577
g6
F1920.6
sg7
F2581.8
ss(S'R216'
p1578
S'R322'
p1579
S'SPRING ST'
p1580
tp1581
(dp1582
g6
F10453.2
sg7
F1929.6
ss(S'B020'
p1583
S'R263'
p1584
S'AVE H'
p1585
tp1586
(dp1587
g6
F5241.0
sg7
F7692.0
ss(S'N057'
p1588
S'R188'
p1589
S'50 ST'
p1590
tp1591
(dp1592
g6
F16440.6
sg7
F47682.8
ss(S'B022'
p1593
S'R229'
p1594
S'AVE M'
p1595
tp1596
(dp1597
g6
F11210.0
sg7
F13654.0
ss(S'B021'
p1598
S'R228'
p1599
S'AVE J'
p1600
tp1601
(dp1602
g6
F8450.0
sg7
F17414.8
ss(S'PTH12'
p1603
S'R542'
p1604
S'TWENTY THIRD ST'
p1605
tp1606
(dp1607
g6
F18612.0
sg7
F33759.0
ss(S'R312'
p1608
S'R405'
p1609
S'JACKSON AVE'
p1610
tp1611
(dp1612
g6
F803.0
sg7
F4476.0
ss(S'A007'
p1613
S'R079'
p1614
S'5 AVE-59 ST'
p1615
tp1616
(dp1617
g6
F7831.2
sg7
F11571.6
ss(S'N056'
p1618
S'R188'
p1619
S'50 ST'
p1620
tp1621
(dp1622
g6
F11426.4
sg7
F13343.2
ss(S'C017'
p1623
S'R455'
p1624
S'25 ST'
p1625
tp1626
(dp1627
g6
F879.0
sg7
F898.8
ss(S'R320'
p1628
S'R409'
p1629
S'FREEMAN ST'
p1630
tp1631
(dp1632
g6
F200.4
sg7
F1223.4
ss(S'PTH04'
p1633
S'R551'
p1634
S'GROVE STREET'
p1635
tp1636
(dp1637
g6
F29537.4
sg7
F36632.0
ss(S'R415'
p1638
S'R120'
p1639
S'MORRISON AVE'
p1640
tp1641
(dp1642
g6
F3783.6
sg7
F5385.6
ss(S'N207'
p1643
S'R104'
p1644
S'167 ST'
p1645
tp1646
(dp1647
g6
F2196.0
sg7
F5452.8
ss(S'R208'
p1648
S'R014'
p1649
S'FULTON ST'
p1650
tp1651
(dp1652
g6
F21380.4
sg7
F14666.4
ss(S'R203'
p1653
S'R043'
p1654
S'WALL ST'
p1655
tp1656
(dp1657
g6
F8584.0
sg7
F51350.0
ss(S'R523'
p1658
S'R147'
p1659
S'61 ST/WOODSIDE'
p1660
tp1661
(dp1662
g6
F21552.0
sg7
F32438.4
ss(S'N519'
p1663
S'R461'
p1664
S'BROADWAY/LAFAY'
p1665
tp1666
(dp1667
g6
F45705.8
sg7
F53963.0
ss(S'R727'
p1668
S'R430'
p1669
S'PELHAM PARKWAY'
p1670
tp1671
(dp1672
g6
F1042.2
sg7
F1368.6
ss(S'R514'
p1673
S'R094'
p1674
S'HOYT ST-ASTORIA'
p1675
tp1676
(dp1677
g6
F5611.2
sg7
F13402.2
ss(S'R254'
p1678
S'R181'
p1679
S'110 ST'
p1680
tp1681
(dp1682
g6
F3701.4
sg7
F6557.4
ss(S'N525'
p1683
S'R142'
p1684
S'DELANCEY ST'
p1685
tp1686
(dp1687
g6
F6100.0
sg7
F13612.0
ss(S'R624'
p1688
S'R124'
p1689
S'KINGSTON AVE'
p1690
tp1691
(dp1692
g6
F2347.2
sg7
F3106.8
ss(S'J037'
p1693
S'R009'
p1694
S'121 ST'
p1695
tp1696
(dp1697
g6
F1119.0
sg7
F2771.0
ss(S'N324'
p1698
S'R018'
p1699
S'ROOSEVELT AVE'
p1700
tp1701
(dp1702
g6
F57014.4
sg7
F111680.0
ss(S'D004'
p1703
S'R391'
p1704
S'FT HAMILTON PKY'
p1705
tp1706
(dp1707
g6
F86.4
sg7
F1492.0
ss(S'R171'
p1708
S'R192'
p1709
S'110 ST-CATHEDRL'
p1710
tp1711
(dp1712
g6
F2394.6
sg7
F2312.4
ss(S'N323'
p1713
S'R018'
p1714
S'ROOSEVELT AVE'
p1715
tp1716
(dp1717
g6
F6007.2
sg7
F14342.4
ss(S'N343'
p1718
S'R019'
p1719
S'JAMAICA-179 ST'
p1720
tp1721
(dp1722
g6
F8657.6
sg7
F24183.6
ss(S'J005'
p1723
S'R353'
p1724
S'LORIMER ST'
p1725
tp1726
(dp1727
g6
F1478.0
sg7
F4885.0
ss(S'R237'
p1728
S'R046'
p1729
S'42 ST-GRD CNTRL'
p1730
tp1731
(dp1732
g6
F37825.2
sg7
F42151.2
ss(S'N331'
p1733
S'R219'
p1734
S'67 AVE'
p1735
tp1736
(dp1737
g6
F2540.8
sg7
F3514.4
ss(S'R162'
p1738
S'R166'
p1739
S'79 ST'
p1740
tp1741
(dp1742
g6
F6739.2
sg7
F20978.4
ss(S'R197'
p1743
S'R117'
p1744
S'242 ST'
p1745
tp1746
(dp1747
g6
F1862.4
sg7
F4708.8
ss(S'N094'
p1748
S'R029'
p1749
S'WORLD TRADE CTR'
p1750
tp1751
(dp1752
g6
F30740.6
sg7
F82286.6
ss(S'R423'
p1753
S'R429'
p1754
S'PELHAM BAY PARK'
p1755
tp1756
(dp1757
g6
F6132.6
sg7
F11388.6
ss(S'R142'
p1758
S'R293'
p1759
S'34 ST-PENN STA'
p1760
tp1761
(dp1762
g6
F17293.2
sg7
F15433.2
ss(S'R161A'
p1763
S'R452'
p1764
S'72 ST'
p1765
tp1766
(dp1767
g6
F20027.2
sg7
F44488.0
ss(S'R416'
p1768
S'R245'
p1769
S'ST LAWRENCE AVE'
p1770
tp1771
(dp1772
g6
F2659.2
sg7
F3378.0
ss(S'N139'
p1773
S'R355'
p1774
S'GREENWOOD-111'
p1775
tp1776
(dp1777
g6
F340.2
sg7
F426.0
ss(S'R609'
p1778
S'R056'
p1779
S'NEVINS ST'
p1780
tp1781
(dp1782
g6
F8541.0
sg7
F7500.0
ss(S'N206'
p1783
S'R104'
p1784
S'167 ST'
p1785
tp1786
(dp1787
g6
F532.0
sg7
F1483.2
ss(S'A041'
p1788
S'R086'
p1789
S"PRINCE ST-B'WAY"
p1790
tp1791
(dp1792
g6
F8018.0
sg7
F25857.0
ss(S'B034'
p1793
S'R264'
p1794
S'OCEAN PARKWAY'
p1795
tp1796
(dp1797
g6
F514.4
sg7
F747.2
ss(S'N063A'
p1798
S'R011'
p1799
S'42 ST-PA BUS TE'
p1800
tp1801
(dp1802
g6
F39216.0
sg7
F18388.8
ss(S'R511'
p1803
S'R091'
p1804
S'WASHINGTON-36 A'
p1805
tp1806
(dp1807
g6
F4105.6
sg7
F6944.0
ss(S'N310'
p1808
S'R140'
p1809
S'QUEENS PLAZA'
p1810
tp1811
(dp1812
g6
F3329.0
sg7
F5326.0
ss(S'R411'
p1813
S'R450'
p1814
S'LONGWOOD AVE'
p1815
tp1816
(dp1817
g6
F939.0
sg7
F542.4
ss(S'R183'
p1818
S'R260'
p1819
S'181 ST'
p1820
tp1821
(dp1822
g6
F9897.0
sg7
F13915.0
ss(S'R519'
p1823
S'R223'
p1824
S'46 ST-BLISS ST'
p1825
tp1826
(dp1827
g6
F8828.8
sg7
F14988.8
ss(S'R215'
p1828
S'R322'
p1829
S'SPRING ST'
p1830
tp1831
(dp1832
g6
F2044.8
sg7
F12352.2
ss(S'B013'
p1833
S'R196'
p1834
S'PROSPECT PARK'
p1835
tp1836
(dp1837
g6
F2624.0
sg7
F5209.0
ss(S'N184'
p1838
S'R416'
p1839
S'BEACH 90 ST'
p1840
tp1841
(dp1842
g6
F681.0
sg7
F1042.0
ss(S'H030'
p1843
S'R266'
p1844
S'HALSEY ST'
p1845
tp1846
(dp1847
g6
F693.0
sg7
F773.4
ss(S'C010'
p1848
S'R231'
p1849
S'UNION ST'
p1850
tp1851
(dp1852
g6
F1258.2
sg7
F3021.6
ss(S'R289'
p1853
S'R119'
p1854
S'FORDHAM ROAD'
p1855
tp1856
(dp1857
g6
F2401.2
sg7
F16357.2
ss(S'R305'
p1858
S'R206'
p1859
S'125 ST'
p1860
tp1861
(dp1862
g6
F1674.6
sg7
F5721.6
ss(S'R513'
p1863
S'R093'
p1864
S'GRAND-30 AVE'
p1865
tp1866
(dp1867
g6
F8391.6
sg7
F14961.6
ss(S'N020'
p1868
S'R101'
p1869
S'145 ST'
p1870
tp1871
(dp1872
g6
F16407.6
sg7
F23904.0
ss(S'C012'
p1873
S'R258'
p1874
S'9 ST'
p1875
tp1876
(dp1877
g6
F14680.6
sg7
F25843.4
ss(S'PTH13'
p1878
S'R541'
p1879
S'THIRTY ST'
p1880
tp1881
(dp1882
g6
F63100.6
sg7
F66201.4
ss(S'PTH02'
p1883
S'R544'
p1884
S'HARRISON'
p1885
tp1886
(dp1887
g6
F7365.8
sg7
F5319.6
ss(S'H022'
p1888
S'R279'
p1889
S'JEFFERSON ST'
p1890
tp1891
(dp1892
g6
F1604.0
sg7
F9285.0
ss(S'A047'
p1893
S'R087'
p1894
S'CITY HALL'
p1895
tp1896
(dp1897
g6
F13937.4
sg7
F29543.4
ss(S'N192'
p1898
S'R336'
p1899
S'BEACH 60 ST'
p1900
tp1901
(dp1902
g6
F1447.0
sg7
F1774.0
ss(S'R155'
p1903
S'R116'
p1904
S'50 ST'
p1905
tp1906
(dp1907
g6
F64148.0
sg7
F63302.0
ss(S'R628'
p1908
S'R064'
p1909
S'SARATOGA AVE'
p1910
tp1911
(dp1912
g6
F2010.4
sg7
F5365.6
ss(S'R307'
p1913
S'R207'
p1914
S'135 ST'
p1915
tp1916
(dp1917
g6
F2738.0
sg7
F6893.0
ss(S'R420'
p1918
S'R107'
p1919
S'WESTCHESTER SQ'
p1920
tp1921
(dp1922
g6
F4144.2
sg7
F5019.0
ss(S'PTH11'
p1923
S'R545'
p1924
S'14TH STREET'
p1925
tp1926
(dp1927
g6
F19729.6
sg7
F34674.2
ss(S'R117'
p1928
S'R343'
p1929
S'FRANKLIN ST'
p1930
tp1931
(dp1932
g6
F828.0
sg7
F5605.2
ss(S'E011'
p1933
S'R371'
p1934
S'79 ST'
p1935
tp1936
(dp1937
g6
F2433.0
sg7
F3708.0
ss(S'N416'
p1938
S'R286'
p1939
S'MYRTLE-WILLOUGH'
p1940
tp1941
(dp1942
g6
F144.8
sg7
F1664.0
ss(S'R530'
p1943
S'R310'
p1944
S'111 ST'
p1945
tp1946
(dp1947
g6
F3906.0
sg7
F7739.0
ss(S'N126'
p1948
S'R441'
p1949
S'VAN SICLEN AVE'
p1950
tp1951
(dp1952
g6
F997.8
sg7
F1252.8
ss(S'R170'
p1953
S'R191'
p1954
S'103 ST'
p1955
tp1956
(dp1957
g6
F5674.8
sg7
F18242.4
ss(S'R161B'
p1958
S'R452'
p1959
S'72 ST'
p1960
tp1961
(dp1962
g6
F43152.0
sg7
F71354.4
ss(S'R315'
p1963
S'R406'
p1964
S'PROSPECT AVE'
p1965
tp1966
(dp1967
g6
F619.8
sg7
F1197.6
ss(S'N309A'
p1968
S'R140'
p1969
S'QUEENS PLAZA'
p1970
tp1971
(dp1972
g6
F36856.2
sg7
F41154.0
ss(S'D005'
p1973
S'R398'
p1974
S'NEW UTRECHT AVE'
p1975
tp1976
(dp1977
g6
F3175.0
sg7
F4080.0
ss(S'R303'
p1978
S'R324'
p1979
S'116 ST'
p1980
tp1981
(dp1982
g6
F1275.0
sg7
F3177.0
ss(S'R245A'
p1983
S'R051'
p1984
S'59 ST'
p1985
tp1986
(dp1987
g6
F41568.0
sg7
F42499.2
ss(S'R728'
p1988
S'R226'
p1989
S'GUN HILL ROAD'
p1990
tp1991
(dp1992
g6
F848.8
sg7
F3052.8
ss(S'J007'
p1993
S'R377'
p1994
S'FLUSHING AVE'
p1995
tp1996
(dp1997
g6
F3660.0
sg7
F11687.0
ss(S'N526'
p1998
S'R142'
p1999
S'DELANCEY ST'
p2000
tp2001
(dp2002
g6
F5201.0
sg7
F11089.4
ss(S'N506'
p2003
S'R022'
p2004
S'34 ST-HERALD SQ'
p2005
tp2006
(dp2007
g6
F119404.8
sg7
F203699.2
ss(S'C001'
p2008
S'R108'
p2009
S'BOROUGH HALL/CT'
p2010
tp2011
(dp2012
g6
F2511.0
sg7
F3505.0
ss(S'B029'
p2013
S'R172'
p2014
S'BRIGHTON BEACH'
p2015
tp2016
(dp2017
g6
F3826.0
sg7
F10265.0
ss(S'J023'
p2018
S'R436'
p2019
S'NORWOOD AVE'
p2020
tp2021
(dp2022
g6
F1222.2
sg7
F1473.0
ss(S'R256'
p2023
S'R182'
p2024
S'116 ST'
p2025
tp2026
(dp2027
g6
F3676.0
sg7
F7099.2
ss(S'N504'
p2028
S'R021'
p2029
S'42 ST-BRYANT PK'
p2030
tp2031
(dp2032
g6
F99892.8
sg7
F97216.2
ss(S'N330C'
p2033
S'R202'
p2034
S'63 DR-REGO PARK'
p2035
tp2036
(dp2037
g6
F1473.6
sg7
F4119.6
ss(S'N220'
p2038
S'R155'
p2039
S'KINGSBRIDGE RD'
p2040
tp2041
(dp2042
g6
F2346.4
sg7
F3568.6
ss(S'N539A'
p2043
S'R288'
p2044
S'7 AV-PARK SLOPE'
p2045
tp2046
(dp2047
g6
F3592.8
sg7
F22896.0
ss(S'N342'
p2048
S'R019'
p2049
S'JAMAICA-179 ST'
p2050
tp2051
(dp2052
g6
F4888.4
sg7
F11627.0
ss(S'R121'
p2053
S'R290'
p2054
S'HOUSTON ST'
p2055
tp2056
(dp2057
g6
F1143.2
sg7
F11606.4
ss(S'C024'
p2058
S'R214'
p2059
S'77 ST'
p2060
tp2061
(dp2062
g6
F1822.4
sg7
F3276.0
ss(S'R250'
p2063
S'R179'
p2064
S'86 ST'
p2065
tp2066
(dp2067
g6
F14872.8
sg7
F197311.2
ss(S'C026'
p2068
S'R215'
p2069
S'86 ST'
p2070
tp2071
(dp2072
g6
F291.2
sg7
F1000.0
ss(S'N029'
p2073
S'R333'
p2074
S'116 ST'
p2075
tp2076
(dp2077
g6
F1342.8
sg7
F2152.2
ss(S'N419'
p2078
S'R287'
p2079
S'CLASSON AVE'
p2080
tp2081
(dp2082
g6
F1984.8
sg7
F2932.8
ss(S'R122'
p2083
S'R290'
p2084
S'HOUSTON ST'
p2085
tp2086
(dp2087
g6
F1596.8
sg7
F2496.8
ss(S'N519A'
p2088
S'R461'
p2089
S'BROADWAY/LAFAY'
p2090
tp2091
(dp2092
g6
F47164.0
sg7
F49717.2
ss(S'H023'
p2093
S'R236'
p2094
S'DEKALB AVE'
p2095
tp2096
(dp2097
g6
F3074.4
sg7
F12168.0
ss(S'R317'
p2098
S'R408'
p2099
S'SIMPSON ST'
p2100
tp2101
(dp2102
g6
F775.0
sg7
F3407.0
ss(S'N133'
p2103
S'R384'
p2104
S'BOYD-88 ST'
p2105
tp2106
(dp2107
g6
F327.6
sg7
F1512.6
ss(S'R309'
p2108
S'R345'
p2109
S'148 ST-LENOX'
p2110
tp2111
(dp2112
g6
F2077.2
sg7
F2349.6
ss(S'N131'
p2113
S'R383'
p2114
S'HUDSON-80 ST'
p2115
tp2116
(dp2117
g6
F449.4
sg7
F612.6
ss(S'N025'
p2118
S'R102'
p2119
S'125 ST'
p2120
tp2121
(dp2122
g6
F4963.2
sg7
F9858.0
ss(S'PTH06'
p2123
S'R546'
p2124
S'PAVONIA/NEWPORT'
p2125
tp2126
(dp2127
g6
F28738.6
sg7
F39043.4
ss(S'R286'
p2128
S'R309'
p2129
S'176 ST'
p2130
tp2131
(dp2132
g6
F2352.0
sg7
F4744.0
ss(S'R288'
p2133
S'R275'
p2134
S'183 ST'
p2135
tp2136
(dp2137
g6
F2000.8
sg7
F4157.6
ss(S'N120'
p2138
S'R153'
p2139
S'UTICA AVE'
p2140
tp2141
(dp2142
g6
F5260.8
sg7
F10633.2
ss(S'N024'
p2143
S'R332'
p2144
S'135 ST'
p2145
tp2146
(dp2147
g6
F786.0
sg7
F1524.6
ss(S'N113'
p2148
S'R297'
p2149
S'FRANKLIN AVE'
p2150
tp2151
(dp2152
g6
F756.0
sg7
F1513.2
ss(S'R311'
p2153
S'R053'
p2154
S'149 ST-3 AVE'
p2155
tp2156
(dp2157
g6
F9508.8
sg7
F11745.6
ss(S'R219'
p2158
S'R160'
p2159
S'ASTOR PLACE'
p2160
tp2161
(dp2162
g6
F7480.8
sg7
F22154.4
ss(S'C015'
p2163
S'R454'
p2164
S'PROSPECT AVE'
p2165
tp2166
(dp2167
g6
F1703.4
sg7
F1263.6
ss(S'R151'
p2168
S'R033'
p2169
S'42 ST-TIMES SQ'
p2170
tp2171
(dp2172
g6
F60620.4
sg7
F76086.0
ss(S'R283'
p2173
S'R221'
p2174
S'167 ST'
p2175
tp2176
(dp2177
g6
F5847.2
sg7
F7228.0
ss(S'N529'
p2178
S'R257'
p2179
S'EAST BROADWAY'
p2180
tp2181
(dp2182
g6
F2406.6
sg7
F5610.0
ss(S'J016'
p2183
S'R381'
p2184
S'HALSEY ST'
p2185
tp2186
(dp2187
g6
F753.6
sg7
F2782.2
ss(S'R134'
p2188
S'R272'
p2189
S'28 ST'
p2190
tp2191
(dp2192
g6
F13861.4
sg7
F11296.6
ss(S'N194'
p2193
S'R338'
p2194
S'BEACH 36 ST'
p2195
tp2196
(dp2197
g6
F496.0
sg7
F603.0
ss(S'H033'
p2198
S'R313'
p2199
S'BUSHWICK AVE'
p2200
tp2201
(dp2202
g6
F478.8
sg7
F1059.6
ss(S'R407'
p2203
S'R448'
p2204
S'E 143 ST'
p2205
tp2206
(dp2207
g6
F483.6
sg7
F151.2
ss(S'N186'
p2208
S'R418'
p2209
S'BEACH 105 ST'
p2210
tp2211
(dp2212
g6
F189.0
sg7
F271.0
ss(S'R417'
p2213
S'R222'
p2214
S'E 177 ST-PARKCH'
p2215
tp2216
(dp2217
g6
F18523.2
sg7
F22471.2
ss(S'R404'
p2218
S'R447'
p2219
S'CYPRESS AVE'
p2220
tp2221
(dp2222
g6
F463.8
sg7
F1771.8
ss(S'N531'
p2223
S'R129'
p2224
S'BERGEN ST'
p2225
tp2226
(dp2227
g6
F3538.0
sg7
F2670.0
ss(S'A082'
p2228
S'R028'
p2229
S'FULTON ST'
p2230
tp2231
(dp2232
g6
F88.8
sg7
F710.4
ss(S'C009'
p2233
S'R057'
p2234
S'BARCLAYS CENTER'
p2235
tp2236
(dp2237
g6
F33944.0
sg7
F36014.0
ss(S'C025'
p2238
S'R215'
p2239
S'86 ST'
p2240
tp2241
(dp2242
g6
F4925.0
sg7
F10410.0
ss(S'N090'
p2243
S'R139'
p2244
S'CANAL ST'
p2245
tp2246
(dp2247
g6
F22765.4
sg7
F27041.0
ss(S'R179'
p2248
S'R193'
p2249
S'157 ST'
p2250
tp2251
(dp2252
g6
F2164.2
sg7
F1926.6
ss(S'R525'
p2253
S'R018'
p2254
S'74 ST-BROADWAY'
p2255
tp2256
(dp2257
g6
F3163.0
sg7
F4363.0
ss(S'N049'
p2258
S'R084'
p2259
S'59 ST-COLUMBUS'
p2260
tp2261
(dp2262
g6
F131226.0
sg7
F127122.0
ss(S'E014'
p2263
S'R374'
p2264
S'BAY PARKWAY'
p2265
tp2266
(dp2267
g6
F5899.6
sg7
F6874.0
ss(S'N181A'
p2268
S'R464'
p2269
S'AQUEDUCT TRACK'
p2270
tp2271
(dp2272
g6
F213.6
sg7
F3579.6
ss(S'R524'
p2273
S'R347'
p2274
S'69 ST-FISK AVE'
p2275
tp2276
(dp2277
g6
F5227.2
sg7
F7003.2
ss(S'R175'
p2278
S'R169'
p2279
S'137 ST-CITY COL'
p2280
tp2281
(dp2282
g6
F3061.0
sg7
F3698.0
ss(S'R413'
p2283
S'R325'
p2284
S'WHITLOCK AVE'
p2285
tp2286
(dp2287
g6
F1768.8
sg7
F2004.0
ss(S'N001'
p2288
S'R173'
p2289
S'INWOOD-207 ST'
p2290
tp2291
(dp2292
g6
F1248.0
sg7
F3271.2
ss(S'R618'
p2293
S'R058'
p2294
S'BERGEN ST'
p2295
tp2296
(dp2297
g6
F1212.0
sg7
F1636.0
ss(S'H006'
p2298
S'R330'
p2299
S'3 AVE'
p2300
tp2301
(dp2302
g6
F2462.4
sg7
F5226.6
ss(S'R645'
p2303
S'R110'
p2304
S'FLATBUSH AVE'
p2305
tp2306
(dp2307
g6
F8976.0
sg7
F20176.2
ss(S'N601'
p2308
S'R319'
p2309
S'LEXINGTON AVE'
p2310
tp2311
(dp2312
g6
F17956.8
sg7
F30368.0
ss(S'B018'
p2313
S'R184'
p2314
S'CORTELYOU ROAD'
p2315
tp2316
(dp2317
g6
F949.2
sg7
F2893.2
ss(S'N541'
p2318
S'R241'
p2319
S'15 ST-PROSPECT'
p2320
tp2321
(dp2322
g6
F1140.0
sg7
F3100.8
ss(S'N077'
p2323
S'R111'
p2324
S'23 ST'
p2325
tp2326
(dp2327
g6
F14328.0
sg7
F13765.2
ss(S'A015'
p2328
S'R081'
p2329
S'49 ST-7 AVE'
p2330
tp2331
(dp2332
g6
F17538.0
sg7
F33622.8
ss(S'H013'
p2333
S'R249'
p2334
S'GRAHAM AVE'
p2335
tp2336
(dp2337
g6
F662.4
sg7
F4618.2
ss(S'N191'
p2338
S'R335'
p2339
S'BEACH 67 ST'
p2340
tp2341
(dp2342
g6
F1465.0
sg7
F2098.0
ss(S'S101'
p2343
S'R070'
p2344
S'ST. GEORGE'
p2345
tp2346
(dp2347
g6
F0.0
sg7
F7527.0
ss(S'N542'
p2348
S'R241'
p2349
S'15 ST-PROSPECT'
p2350
tp2351
(dp2352
g6
F484.8
sg7
F2700.8
ss(S'R244'
p2353
S'R050'
p2354
S'59 ST'
p2355
tp2356
(dp2357
g6
F60671.6
sg7
F66127.6
ss(S'C003'
p2358
S'R089'
p2359
S'JAY ST-METROTEC'
p2360
tp2361
(dp2362
g6
F4074.0
sg7
F4863.0
ss(S'N089'
p2363
S'R139'
p2364
S'CANAL ST'
p2365
tp2366
(dp2367
g6
F55442.4
sg7
F83402.4
ss(S'R127'
p2368
S'R105'
p2369
S'14 ST'
p2370
tp2371
(dp2372
g6
F53568760.0
sg7
F35792.0
ss(S'R190'
p2373
S'R038'
p2374
S'215 ST'
p2375
tp2376
(dp2377
g6
F660.8
sg7
F2050.4
ss(S'N037'
p2378
S'R314'
p2379
S'103 ST'
p2380
tp2381
(dp2382
g6
F1446.0
sg7
F3243.6
ss(S'R145'
p2383
S'R032'
p2384
S'42 ST-TIMES SQ'
p2385
tp2386
(dp2387
g6
F52764.8
sg7
F46873.6
ss(S'J025'
p2388
S'R003'
p2389
S'CYPRESS HILLS'
p2390
tp2391
(dp2392
g6
F346.2
sg7
F671.4
ss(S'R147'
p2393
S'R033'
p2394
S'42 ST-TIMES SQ'
p2395
tp2396
(dp2397
g6
F27934.2
sg7
F68284.8
ss(S'N600'
p2398
S'R302'
p2399
S'57 ST'
p2400
tp2401
(dp2402
g6
F65059.2
sg7
F91624.8
ss(S'R402'
p2403
S'R446'
p2404
S'BROOK AVE'
p2405
tp2406
(dp2407
g6
F969.6
sg7
F3268.0
ss(S'R103'
p2408
S'R304'
p2409
S'RECTOR ST'
p2410
tp2411
(dp2412
g6
F5352.0
sg7
F10676.8
ss(S'A033'
p2413
S'R170'
p2414
S'14 ST-UNION SQ'
p2415
tp2416
(dp2417
g6
F55612.8
sg7
F78603.2
ss(S'R321'
p2418
S'R386'
p2419
S'174 ST'
p2420
tp2421
(dp2422
g6
F1969.8
sg7
F1080.0
ss(S'A046'
p2423
S'R463'
p2424
S'CANAL ST'
p2425
tp2426
(dp2427
g6
F111989.8
sg7
F153888.6
ss(S'R231'
p2428
S'R176'
p2429
S'33 ST'
p2430
tp2431
(dp2432
g6
F10983.6
sg7
F27494.4
ss(S'N420B'
p2433
S'R317'
p2434
S'CLINTON-WASH AV'
p2435
tp2436
(dp2437
g6
F835.2
sg7
F8424.0
ss(S'R336'
p2438
S'R145'
p2439
S'WAKEFIELD-241'
p2440
tp2441
(dp2442
g6
F3622.0
sg7
F4726.0
ss(S'N334B'
p2443
S'R341'
p2444
S'75 AVE'
p2445
tp2446
(dp2447
g6
F630.4
sg7
F5595.2
ss(S'N003'
p2448
S'R185'
p2449
S'DYCKMAN-200 ST'
p2450
tp2451
(dp2452
g6
F89.4
sg7
F2979.0
ss(S'R237B'
p2453
S'R047'
p2454
S'42 ST-GRD CNTRL'
p2455
tp2456
(dp2457
g6
F12704.0
sg7
F9376.0
ss(S'R228'
p2458
S'R143'
p2459
S'28 ST'
p2460
tp2461
(dp2462
g6
F19339.2
sg7
F17228.4
ss(S'A081'
p2463
S'R028'
p2464
S'FULTON ST'
p2465
tp2466
(dp2467
g6
F6816.6
sg7
F2675.4
ss(S'N044'
p2468
S'R187'
p2469
S'81 ST-MUSEUM'
p2470
tp2471
(dp2472
g6
F12407.0
sg7
F16165.0
ss(S'N007A'
p2473
S'R174'
p2474
S'181 ST'
p2475
tp2476
(dp2477
g6
F1291.2
sg7
F2624.4
ss(S'R177'
p2478
S'R273'
p2479
S'145 ST'
p2480
tp2481
(dp2482
g6
F1869.0
sg7
F2014.2
ss(S'R506'
p2483
S'R276'
p2484
S'VERNON/JACKSON'
p2485
tp2486
(dp2487
g6
F175.2
sg7
F1892.8
ss(S'R647'
p2488
S'R110'
p2489
S'FLATBUSH AVE'
p2490
tp2491
(dp2492
g6
F3442.8
sg7
F2282.4
ss(S'N073'
p2493
S'R013'
p2494
S'34 ST-PENN STA'
p2495
tp2496
(dp2497
g6
F22309.2
sg7
F10215.0
ss(S'N095'
p2498
S'R014'
p2499
S'FULTON ST'
p2500
tp2501
(dp2502
g6
F33842.6
sg7
F132057.2
ss(S'R406'
p2503
S'R448'
p2504
S'E 143 ST'
p2505
tp2506
(dp2507
g6
F187.2
sg7
F475.2
ss(S'A050'
p2508
S'R088'
p2509
S'CORTLANDT ST'
p2510
tp2511
(dp2512
g6
F24939.0
sg7
F-1645334.8
ss(S'K019'
p2513
S'R413'
p2514
S'KNICKERBOCKER'
p2515
tp2516
(dp2517
g6
F1806.4
sg7
F2678.4
ss(S'R244A'
p2518
S'R050'
p2519
S'59 ST'
p2520
tp2521
(dp2522
g6
F34938.4
sg7
F55483.4
ss(S'N505'
p2523
S'R022'
p2524
S'34 ST-HERALD SQ'
p2525
tp2526
(dp2527
g6
F120664.8
sg7
F149908.8
ss(S'TRAM2'
p2528
S'R469'
p2529
S'RIT-ROOSEVELT'
p2530
tp2531
(dp2532
g6
F58.8
sg7
F4324.8
ss(S'R323'
p2533
S'R387'
p2534
S'E TREMONT AVE'
p2535
tp2536
(dp2537
g6
F12151.8
sg7
F13500.0
ss(S'R113'
p2538
S'R028'
p2539
S'FULTON ST'
p2540
tp2541
(dp2542
g6
F7744.0
sg7
F6512.0
ss(S'PTH05'
p2543
S'R543'
p2544
S'EXCHANGE PLACE'
p2545
tp2546
(dp2547
g6
F65738.4
sg7
F93688.4
ss(S'D010'
p2548
S'R394'
p2549
S'BAY PKY-22 AVE'
p2550
tp2551
(dp2552
g6
F2245.6
sg7
F2905.6
ss(S'G009'
p2553
S'R151'
p2554
S'STILLWELL AVE'
p2555
tp2556
(dp2557
g6
F8027.2
sg7
F10264.0
ss(S'R601A'
p2558
S'R108'
p2559
S'BOROUGH HALL/CT'
p2560
tp2561
(dp2562
g6
F37846.8
sg7
F33913.8
ss(S'R180'
p2563
S'R193'
p2564
S'157 ST'
p2565
tp2566
(dp2567
g6
F1614.0
sg7
F6530.0
ss(S'N502'
p2568
S'R021'
p2569
S'42 ST-BRYANT PK'
p2570
tp2571
(dp2572
g6
F22578.0
sg7
F46926.0
ss(S'R166'
p2573
S'R167'
p2574
S'86 ST'
p2575
tp2576
(dp2577
g6
F1380.6
sg7
F3087.6
ss(S'R259'
p2578
S'R307'
p2579
S'138 ST-GR CONC'
p2580
tp2581
(dp2582
g6
F2290.2
sg7
F2907.6
ss(S'H016'
p2583
S'R250'
p2584
S'GRAND ST'
p2585
tp2586
(dp2587
g6
F3107.4
sg7
F1972.8
ss(S'C019'
p2588
S'R232'
p2589
S'45 ST'
p2590
tp2591
(dp2592
g6
F2746.4
sg7
F5978.4
ss(S'R154'
p2593
S'R116'
p2594
S'50 ST'
p2595
tp2596
(dp2597
g6
F40988.8
sg7
F59299.2
ss(S'N062'
p2598
S'R011'
p2599
S'42 ST-PA BUS TE'
p2600
tp2601
(dp2602
g6
F15704.0
sg7
F30580.0
ss(S'N100'
p2603
S'R252'
p2604
S'HIGH ST'
p2605
tp2606
(dp2607
g6
F5720.4
sg7
F5800.8
ss(S'R116'
p2608
S'R030'
p2609
S'CHAMBERS ST'
p2610
tp2611
(dp2612
g6
F125529.6
sg7
F168585.6
ss(S'A054'
p2613
S'R227'
p2614
S'RECTOR ST'
p2615
tp2616
(dp2617
g6
F5971.2
sg7
F10040.4
ss(S'R529'
p2618
S'R208'
p2619
S'103 ST-CORONA'
p2620
tp2621
(dp2622
g6
F13084.2
sg7
F26272.8
ss(S'R226'
p2623
S'R131'
p2624
S'23 ST'
p2625
tp2626
(dp2627
g6
F25003.2
sg7
F19814.4
ss(S'R123'
p2628
S'R290'
p2629
S'HOUSTON ST'
p2630
tp2631
(dp2632
g6
F2043.0
sg7
F7756.2
ss(S'R232A'
p2633
S'R176'
p2634
S'33 ST'
p2635
tp2636
(dp2637
g6
F4569.6
sg7
F6833.6
ss(S'R119'
p2638
S'R320'
p2639
S'CANAL ST'
p2640
tp2641
(dp2642
g6
F1949.4
sg7
F7437.6
ss(S'N110'
p2643
S'R283'
p2644
S'LAFAYETTE AVE'
p2645
tp2646
(dp2647
g6
F4086.0
sg7
F13052.0
ss(S'N422'
p2648
S'R318'
p2649
S'FULTON ST'
p2650
tp2651
(dp2652
g6
F7672.0
sg7
F11911.2
ss(S'JFK01'
p2653
S'R535'
p2654
S'JFK HOWARD BCH'
p2655
tp2656
(dp2657
g6
F757.2
sg7
F148.8
ss(S'N317'
p2658
S'R267'
p2659
S'46 ST'
p2660
tp2661
(dp2662
g6
F1287.0
sg7
F1370.0
ss(S'N508'
p2663
S'R453'
p2664
S'23 ST-6 AVE'
p2665
tp2666
(dp2667
g6
F24491.0
sg7
F21905.0
ss(S'R626'
p2668
S'R062'
p2669
S'CROWN HTS-UTICA'
p2670
tp2671
(dp2672
g6
F16920.2
sg7
F33387.2
ss(S'R251'
p2673
S'R144'
p2674
S'96 ST'
p2675
tp2676
(dp2677
g6
F7230.0
sg7
F45844.8
ss(S'R124'
p2678
S'R290'
p2679
S'HOUSTON ST'
p2680
tp2681
(dp2682
g6
F8028.8
sg7
F2720.0
ss(S'J001'
p2683
S'R460'
p2684
S'MARCY AVE'
p2685
tp2686
(dp2687
g6
F5677.0
sg7
F11701.2
ss(S'A002'
p2688
S'R051'
p2689
S'LEXINGTON AVE'
p2690
tp2691
(dp2692
g6
F53683.2
sg7
F96004.8
ss(S'R196'
p2693
S'R306'
p2694
S'238 ST'
p2695
tp2696
(dp2697
g6
F61.2
sg7
F1597.2
ss(S'R227A'
p2698
S'R131'
p2699
S'23 ST'
p2700
tp2701
(dp2702
g6
F14807.0
sg7
F32739.0
ss(S'N072'
p2703
S'R012'
p2704
S'34 ST-PENN STA'
p2705
tp2706
(dp2707
g6
F15367.0
sg7
F57193.4
ss(S'N316'
p2708
S'R267'
p2709
S'46 ST'
p2710
tp2711
(dp2712
g6
F507.0
sg7
F1232.4
ss(S'N069'
p2713
S'R013'
p2714
S'34 ST-PENN STA'
p2715
tp2716
(dp2717
g6
F9132.8
sg7
F11684.0
ss(S'R290'
p2718
S'R161'
p2719
S'KINGSBRIDGE RD'
p2720
tp2721
(dp2722
g6
F4728.0
sg7
F7852.0
ss(S'N043'
p2723
S'R186'
p2724
S'86 ST'
p2725
tp2726
(dp2727
g6
F7255.0
sg7
F19192.0
ss(S'N551'
p2728
S'R421'
p2729
S'AVE I'
p2730
tp2731
(dp2732
g6
F484.0
sg7
F2014.4
ss(S'N114'
p2733
S'R297'
p2734
S'FRANKLIN AVE'
p2735
tp2736
(dp2737
g6
F4068.0
sg7
F5187.6
ss(S'N101'
p2738
S'R252'
p2739
S'HIGH ST'
p2740
tp2741
(dp2742
g6
F3204.6
sg7
F2938.2
ss(S'N187'
p2743
S'R419'
p2744
S'ROCKAWAY PK 116'
p2745
tp2746
(dp2747
g6
F985.0
sg7
F1034.0
ss(S'R508'
p2748
S'R346'
p2749
S'COURT SQ'
p2750
tp2751
(dp2752
g6
F11376.0
sg7
F16049.6
ss(S'A021'
p2753
S'R032'
p2754
S'42 ST-TIMES SQ'
p2755
tp2756
(dp2757
g6
F63808.0
sg7
F54976.0
ss(S'R501'
p2758
S'R054'
p2759
S'5 AVE-BRYANT PK'
p2760
tp2761
(dp2762
g6
F61796.0
sg7
F74704.0
ss(S'R516'
p2763
S'R291'
p2764
S'33 ST/RAWSON ST'
p2765
tp2766
(dp2767
g6
F20929.2
sg7
F25003.2
ss(S'D015'
p2768
S'R396'
p2769
S'AVE U'
p2770
tp2771
(dp2772
g6
F1615.2
sg7
F2392.8
ss(S'N503'
p2773
S'R021'
p2774
S'42 ST-BRYANT PK'
p2775
tp2776
(dp2777
g6
F35926.8
sg7
F29829.6
ss(S'R203A'
p2778
S'R043'
p2779
S'WALL ST'
p2780
tp2781
(dp2782
g6
F516.0
sg7
F59.2
ss(S'A022'
p2783
S'R022'
p2784
S'34 ST-HERALD SQ'
p2785
tp2786
(dp2787
g6
F18357.0
sg7
F44500.0
ss(S'R328'
p2788
S'R361'
p2789
S'PELHAM PARKWAY'
p2790
tp2791
(dp2792
g6
F2525.0
sg7
F7112.0
ss(S'N330'
p2793
S'R202'
p2794
S'63 DR-REGO PARK'
p2795
tp2796
(dp2797
g6
F10801.8
sg7
F25756.2
ss(S'R327'
p2798
S'R361'
p2799
S'PELHAM PARKWAY'
p2800
tp2801
(dp2802
g6
F771.2
sg7
F1756.0
ss(S'N222'
p2803
S'R156'
p2804
S'BEDFORD PARK BL'
p2805
tp2806
(dp2807
g6
F1800.8
sg7
F2522.4
ss(S'N537'
p2808
S'R258'
p2809
S'4 AVE'
p2810
tp2811
(dp2812
g6
F3944.0
sg7
F5134.4
ss(S'R125'
p2813
S'R189'
p2814
S'CHRISTOPHER ST'
p2815
tp2816
(dp2817
g6
F1376.4
sg7
F7134.0
ss(S'R294'
p2818
S'R052'
p2819
S'WOODLAWN ROAD'
p2820
tp2821
(dp2822
g6
F1345.0
sg7
F7821.0
ss(S'N333A'
p2823
S'R141'
p2824
S'FOREST HILLS-71'
p2825
tp2826
(dp2827
g6
F2715.2
sg7
F20800.0
ss(S'N193'
p2828
S'R337'
p2829
S'BEACH 44 ST'
p2830
tp2831
(dp2832
g6
F365.0
sg7
F501.0
ss(S'N339'
p2833
S'R114'
p2834
S'PARSONS BLVD'
p2835
tp2836
(dp2837
g6
F161.6
sg7
F524.8
ss(S'R186'
p2838
S'R036'
p2839
S'DYCKMAN ST'
p2840
tp2841
(dp2842
g6
F3721.2
sg7
F8928.0
ss(S'R507'
p2843
S'R134'
p2844
S'HUNTERS PT AVE'
p2845
tp2846
(dp2847
g6
F7466.0
sg7
F13618.0
ss(S'R243'
p2848
S'R049'
p2849
S'51 ST'
p2850
tp2851
(dp2852
g6
F56593.8
sg7
F48778.2
ss(S'R302'
p2853
S'R324'
p2854
S'116 ST'
p2855
tp2856
(dp2857
g6
F1877.0
sg7
F8317.0
ss(S'R220'
p2858
S'R160'
p2859
S'ASTOR PLACE'
p2860
tp2861
(dp2862
g6
F17012.4
sg7
F7353.6
ss(S'N083'
p2863
S'R138'
p2864
S'W 4 ST-WASH SQ'
p2865
tp2866
(dp2867
g6
F78292.8
sg7
F115008.0
ss(S'R126'
p2868
S'R189'
p2869
S'CHRISTOPHER ST'
p2870
tp2871
(dp2872
g6
F4675.8
sg7
F1794.0
ss(S'N401'
p2873
S'R360'
p2874
S'VAN ALSTON-21ST'
p2875
tp2876
(dp2877
g6
F1050.0
sg7
F1599.0
ss(S'N561'
p2878
S'R271'
p2879
S'AVE X'
p2880
tp2881
(dp2882
g6
F1018.8
sg7
F1501.2
ss(S'R330'
p2883
S'R363'
p2884
S'BURKE AVE'
p2885
tp2886
(dp2887
g6
F486.0
sg7
F1286.4
ss(S'B027'
p2888
S'R136'
p2889
S'SHEEPSHEAD BAY'
p2890
tp2891
(dp2892
g6
F8346.0
sg7
F9168.0
ss(S'N602'
p2893
S'R259'
p2894
S'ROOSEVELT IS'
p2895
tp2896
(dp2897
g6
F4777.2
sg7
F8203.2
ss(S'C016'
p2898
S'R278'
p2899
S'25 ST'
p2900
tp2901
(dp2902
g6
F853.8
sg7
F2089.8
ss(S'R422'
p2903
S'R428'
p2904
S'BUHRE AVE'
p2905
tp2906
(dp2907
g6
F1921.2
sg7
F1819.2
ss(S'C022'
p2908
S'R212'
p2909
S'59 ST'
p2910
tp2911
(dp2912
g6
F1208.8
sg7
F3401.6
ss(S'PTH10'
p2913
S'R547'
p2914
S'9TH STREET'
p2915
tp2916
(dp2917
g6
F5172.0
sg7
F8825.0
ss(S'N556'
p2918
S'R424'
p2919
S'AVE P'
p2920
tp2921
(dp2922
g6
F879.6
sg7
F1492.2
ss(S'R600'
p2923
S'R224'
p2924
S'CLARK ST'
p2925
tp2926
(dp2927
g6
F2743.2
sg7
F6523.2
ss(S'R201'
p2928
S'R041'
p2929
S'BOWLING GREEN'
p2930
tp2931
(dp2932
g6
F73403.2
sg7
F65392.6
ss(S'R174'
p2933
S'R034'
p2934
S'125 ST'
p2935
tp2936
(dp2937
g6
F7337.0
sg7
F11067.0
ss(S'N520'
p2938
S'R240'
p2939
S'GRAND ST'
p2940
tp2941
(dp2942
g6
F44004.8
sg7
F79496.0
ss(S'J032'
p2943
S'R006'
p2944
S'WOODHAVEN BLVD'
p2945
tp2946
(dp2947
g6
F209.6
sg7
F933.6
ss(S'N339A'
p2948
S'R114'
p2949
S'PARSONS BLVD'
p2950
tp2951
(dp2952
g6
F7575.4
sg7
F7301.0
ss(S'R517'
p2953
S'R291'
p2954
S'33 ST/RAWSON ST'
p2955
tp2956
(dp2957
g6
F3779.2
sg7
F6684.0
ss(S'N512'
p2958
S'R163'
p2959
S'14 ST-6 AVE'
p2960
tp2961
(dp2962
g6
F11874.0
sg7
F12109.0
ss(S'E004'
p2963
S'R234'
p2964
S'50 ST'
p2965
tp2966
(dp2967
g6
F2533.8
sg7
F2844.6
ss(S'A042'
p2968
S'R086'
p2969
S"PRINCE ST-B'WAY"
p2970
tp2971
(dp2972
g6
F18371.0
sg7
F11055.0
ss(S'B028'
p2973
S'R136'
p2974
S'SHEEPSHEAD BAY'
p2975
tp2976
(dp2977
g6
F914.4
sg7
F2025.0
ss(S'N091'
p2978
S'R029'
p2979
S'CHAMBERS ST'
p2980
tp2981
(dp2982
g6
F55673.8
sg7
F89835.2
ss(S'R139'
p2983
S'R031'
p2984
S'34 ST-PENN STA'
p2985
tp2986
(dp2987
g6
F5624.0
sg7
F4737.0
ss(S'N534'
p2988
S'R220'
p2989
S'CARROLL ST'
p2990
tp2991
(dp2992
g6
F1327.0
sg7
F5450.0
ss(S'B004'
p2993
S'R171'
p2994
S'7 AVE'
p2995
tp2996
(dp2997
g6
F4164.0
sg7
F7415.2
ss(S'N019'
p2998
S'R101'
p2999
S'145 ST'
p3000
tp3001
(dp3002
g6
F2035.8
sg7
F3840.6
ss(S'N123B'
p3003
S'R439'
p3004
S'ROCKAWAY AVE'
p3005
tp3006
(dp3007
g6
F262.4
sg7
F950.4
ss(S'N215'
p3008
S'R237'
p3009
S'182-183 ST'
p3010
tp3011
(dp3012
g6
F709.2
sg7
F2507.4
ss(S'N141'
p3013
S'R356'
p3014
S'LEFFERTS BLVD'
p3015
tp3016
(dp3017
g6
F5676.8
sg7
F7454.4
ss(S'R172'
p3018
S'R192'
p3019
S'110 ST-CATHEDRL'
p3020
tp3021
(dp3022
g6
F1816.0
sg7
F10620.0
ss(S'N202'
p3023
S'R315'
p3024
S'155 ST'
p3025
tp3026
(dp3027
g6
F869.4
sg7
F1958.4
ss(S'D003'
p3028
S'R391'
p3029
S'FT HAMILTON PKY'
p3030
tp3031
(dp3032
g6
F940.2
sg7
F1867.2
ss(S'PTH18'
p3033
S'R549'
p3034
S'NEWARK BM BW'
p3035
tp3036
(dp3037
g6
F2531.2
sg7
F30713.6
ss(S'R159'
p3038
S'R164'
p3039
S'66 ST-LINCOLN'
p3040
tp3041
(dp3042
g6
F24463.8
sg7
F19938.6
ss(S'R176'
p3043
S'R169'
p3044
S'137 ST-CITY COL'
p3045
tp3046
(dp3047
g6
F3025.0
sg7
F9989.0
ss(S'N418'
p3048
S'R269'
p3049
S'BEDFORD/NOSTRAN'
p3050
tp3051
(dp3052
g6
F307.2
sg7
F2442.4
ss(S'R532'
p3053
S'R328'
p3054
S'METS-WILLETS PT'
p3055
tp3056
(dp3057
g6
F11242.8
sg7
F20419.2
ss(S'B026'
p3058
S'R230'
p3059
S'NECK ROAD'
p3060
tp3061
(dp3062
g6
F669.2
sg7
F4055.8
ss(S'N124'
p3063
S'R103'
p3064
S'BROADWAY-ENY'
p3065
tp3066
(dp3067
g6
F10032.4
sg7
F13377.0
ss(S'R421'
p3068
S'R427'
p3069
S'MIDDLETOWN ROAD'
p3070
tp3071
(dp3072
g6
F1644.0
sg7
F1435.2
ss(S'N311'
p3073
S'R339'
p3074
S'36 ST'
p3075
tp3076
(dp3077
g6
F2339.0
sg7
F3004.0
ss(S'N063'
p3078
S'R011'
p3079
S'42 ST-PA BUS TE'
p3080
tp3081
(dp3082
g6
F23782.0
sg7
F39420.0
ss(S'A084'
p3083
S'R125'
p3084
S'BROAD ST'
p3085
tp3086
(dp3087
g6
F78.4
sg7
F17004.4
ss(S'N338'
p3088
S'R128'
p3089
S'SUTPHIN BLVD'
p3090
tp3091
(dp3092
g6
F278.4
sg7
F762.4
ss(S'N030'
p3093
S'R333'
p3094
S'116 ST'
p3095
tp3096
(dp3097
g6
F1455.6
sg7
F2858.4
ss(S'R510'
p3098
S'R090'
p3099
S'BEEBE-39 AVE'
p3100
tp3101
(dp3102
g6
F2494.8
sg7
F3814.8
ss(S'R230'
p3103
S'R143'
p3104
S'28 ST'
p3105
tp3106
(dp3107
g6
F5777.0
sg7
F1681.0
ss(S'R204'
p3108
S'R043'
p3109
S'WALL ST'
p3110
tp3111
(dp3112
g6
F23568.0
sg7
F10662.0
ss(S'N304'
p3113
S'R015'
p3114
S'5 AVE-53 ST'
p3115
tp3116
(dp3117
g6
F22467.6
sg7
F36574.2
ss(S'N535'
p3118
S'R220'
p3119
S'CARROLL ST'
p3120
tp3121
(dp3122
g6
F4928.4
sg7
F11496.0
ss(S'N332'
p3123
S'R219'
p3124
S'67 AVE'
p3125
tp3126
(dp3127
g6
F1220.4
sg7
F2816.4
ss(S'PTH17'
p3128
S'R541'
p3129
S'THIRTY THIRD ST'
p3130
tp3131
(dp3132
g6
F71362.6
sg7
F141688.2
ss(S'N333'
p3133
S'R141'
p3134
S'FOREST HILLS-71'
p3135
tp3136
(dp3137
g6
F1318.4
sg7
F1725.6
ss(S'N316A'
p3138
S'R267'
p3139
S'46 ST'
p3140
tp3141
(dp3142
g6
F3731.0
sg7
F4715.2
ss(S'D002'
p3143
S'R390'
p3144
S'8 AVE'
p3145
tp3146
(dp3147
g6
F16293.6
sg7
F17017.2
ss(S'N026'
p3148
S'R102'
p3149
S'125 ST'
p3150
tp3151
(dp3152
g6
F42964.0
sg7
F70490.0
ss(S'H019'
p3153
S'R294'
p3154
S'MORGAN AVE'
p3155
tp3156
(dp3157
g6
F1761.6
sg7
F5839.2
ss(S'N102'
p3158
S'R127'
p3159
S'JAY ST-METROTEC'
p3160
tp3161
(dp3162
g6
F50980.6
sg7
F78141.8
ss(S'K022'
p3163
S'R402'
p3164
S'SENECA AVE'
p3165
tp3166
(dp3167
g6
F916.0
sg7
F1272.0
ss(S'R248'
p3168
S'R178'
p3169
S'77 ST'
p3170
tp3171
(dp3172
g6
F13444.8
sg7
F67256.0
ss(S'R401'
p3173
S'R445'
p3174
S'138 ST-3 AVE'
p3175
tp3176
(dp3177
g6
F3532.8
sg7
F5305.6
ss(S'R335'
p3178
S'R444'
p3179
S'NEREID AVE'
p3180
tp3181
(dp3182
g6
F620.4
sg7
F1626.0
ss(S'N511'
p3183
S'R163'
p3184
S'14 ST-6 AVE'
p3185
tp3186
(dp3187
g6
F7542.0
sg7
F12978.0
ss(S'R258'
p3188
S'R132'
p3189
S'125 ST'
p3190
tp3191
(dp3192
g6
F73584.0
sg7
F74303.6
ss(S'R630'
p3193
S'R066'
p3194
S'JUNIUS ST'
p3195
tp3196
(dp3197
g6
F880.2
sg7
F1978.2
ss(S'H014'
p3198
S'R249'
p3199
S'GRAHAM AVE'
p3200
tp3201
(dp3202
g6
F2154.0
sg7
F1560.6
ss(S'N305A'
p3203
S'R016'
p3204
S'LEXINGTON-53 ST'
p3205
tp3206
(dp3207
g6
F51582.0
sg7
F44664.0
ss(S'A027'
p3208
S'R082'
p3209
S'28 ST-BROADWAY'
p3210
tp3211
(dp3212
g6
F12513.0
sg7
F17017.0
ss(S'R325'
p3213
S'R388'
p3214
S'E 180 ST'
p3215
tp3216
(dp3217
g6
F4940.4
sg7
F6537.6
ss(S'N509'
p3218
S'R203'
p3219
S'23 ST-6 AVE'
p3220
tp3221
(dp3222
g6
F25989.0
sg7
F32906.0
ss(S'R169'
p3223
S'R168'
p3224
S'96 ST'
p3225
tp3226
(dp3227
g6
F67750.4
sg7
F99708.8
ss(S'R194'
p3228
S'R040'
p3229
S'231 ST'
p3230
tp3231
(dp3232
g6
F2122.0
sg7
F19608.0
ss(S'OB01'
p3233
S'R459'
p3234
S'ORCHARD BEACH'
p3235
tp3236
(dp3237
g6
F1.0
sg7
F6.0
ss(S'R226A'
p3238
S'R131'
p3239
S'23 ST'
p3240
tp3241
(dp3242
g6
F3454.4
sg7
F3428.8
ss(S'C028'
p3243
S'R216'
p3244
S'BAY RIDGE-95 ST'
p3245
tp3246
(dp3247
g6
F175.2
sg7
F1798.4
ss(S'R646'
p3248
S'R110'
p3249
S'FLATBUSH AVE'
p3250
tp3251
(dp3252
g6
F663.0
sg7
F709.8
ss(S'N098'
p3253
S'R028'
p3254
S'FULTON ST'
p3255
tp3256
(dp3257
g6
F27194.4
sg7
F28526.4
ss(S'R129'
p3258
S'R321'
p3259
S'18 ST'
p3260
tp3261
(dp3262
g6
F1884.0
sg7
F8544.0
ss(S'B024'
p3263
S'R211'
p3264
S'KINGS HIGHWAY'
p3265
tp3266
(dp3267
g6
F5560.8
sg7
F10644.0
ss(S'B031'
p3268
S'R172'
p3269
S'BRIGHTON BEACH'
p3270
tp3271
(dp3272
g6
F9347.4
sg7
F9829.8
ss(S'N068'
p3273
S'R012'
p3274
S'34 ST-PENN STA'
p3275
tp3276
(dp3277
g6
F9568.0
sg7
F13588.0
ss(S'N412'
p3278
S'R299'
p3279
S'BROADWAY'
p3280
tp3281
(dp3282
g6
F1401.6
sg7
F2722.2
ss(S'R128'
p3283
S'R105'
p3284
S'14 ST'
p3285
tp3286
(dp3287
g6
F7329.0
sg7
F16135.0
ss(S'R639'
p3288
S'R109'
p3289
S'CHURCH AVE'
p3290
tp3291
(dp3292
g6
F3751.2
sg7
F12564.0
ss(S'S102'
p3293
S'R165'
p3294
S'TOMPKINSVILLE'
p3295
tp3296
(dp3297
g6
F0.0
sg7
F1038.8
ss(S'R605'
p3298
S'R456'
p3299
S'HOYT ST'
p3300
tp3301
(dp3302
g6
F9486.0
sg7
F6332.4
ss(S'PTH09'
p3303
S'R548'
p3304
S'CHRISTOPHER ST'
p3305
tp3306
(dp3307
g6
F4768.8
sg7
F8329.6
ss(S'R287'
p3308
S'R244'
p3309
S'BURNSIDE AVE'
p3310
tp3311
(dp3312
g6
F5486.0
sg7
F10390.0
ss(S'N555'
p3313
S'R423'
p3314
S'AVE N'
p3315
tp3316
(dp3317
g6
F874.2
sg7
F1066.8
ss(S'R641'
p3318
S'R210'
p3319
S'BEVERLY ROAD'
p3320
tp3321
(dp3322
g6
F439.2
sg7
F2406.4
ss(S'N533'
p3323
S'R129'
p3324
S'BERGEN ST'
p3325
tp3326
(dp3327
g6
F778.0
sg7
F5418.0
ss(S'N080'
p3328
S'R138'
p3329
S'W 4 ST-WASH SQ'
p3330
tp3331
(dp3332
g6
F22107.4
sg7
F34791.4
ss(S'N128'
p3333
S'R200'
p3334
S'EUCLID AVE'
p3335
tp3336
(dp3337
g6
F4795.2
sg7
F10499.2
ss(S'R532H'
p3338
S'R328'
p3339
S'METS-WILLETS PT'
p3340
tp3341
(dp3342
g6
F316.8
sg7
F1933.2
ss(S'R621'
p3343
S'R060'
p3344
S'EASTERN PKWY'
p3345
tp3346
(dp3347
g6
F5179.2
sg7
F7015.2
ss(S'N119'
p3348
S'R199'
p3349
S'KINGSTON-THROOP'
p3350
tp3351
(dp3352
g6
F855.6
sg7
F2454.0
ss(S'N606'
p3353
S'R025'
p3354
S'JAMAICA CENTER'
p3355
tp3356
(dp3357
g6
F46158.2
sg7
F72844.2
ss(S'R112'
p3358
S'R027'
p3359
S'WALL ST'
p3360
tp3361
(dp3362
g6
F17295.0
sg7
F14421.0
ss(S'R135'
p3363
S'R031'
p3364
S'34 ST-PENN STA'
p3365
tp3366
(dp3367
g6
F32216.4
sg7
F5341.2
ss(S'A037'
p3368
S'R170'
p3369
S'14 ST-UNION SQ'
p3370
tp3371
(dp3372
g6
F9593.6
sg7
F28469.6
ss(S'R262A'
p3373
S'R195'
p3374
S'161 ST-YANKEE'
p3375
tp3376
(dp3377
g6
F874.8
sg7
F2181.6
ss(S'C020'
p3378
S'R233'
p3379
S'53 ST'
p3380
tp3381
(dp3382
g6
F2182.4
sg7
F6359.2
ss(S'C018'
p3383
S'R197'
p3384
S'36 ST'
p3385
tp3386
(dp3387
g6
F9234.0
sg7
F21187.2
ss(S'H027'
p3388
S'R137'
p3389
S'MYRTLE AVE'
p3390
tp3391
(dp3392
g6
F3630.0
sg7
F8925.6
ss(S'B016'
p3393
S'R098'
p3394
S'CHURCH AVE'
p3395
tp3396
(dp3397
g6
F12206.6
sg7
F14560.0
ss(S'R238'
p3398
S'R046'
p3399
S'42 ST-GRD CNTRL'
p3400
tp3401
(dp3402
g6
F419718.6
sg7
F539448.0
ss(S'PTH20'
p3403
S'R549'
p3404
S'NEWARK HM HE'
p3405
tp3406
(dp3407
g6
F28188.8
sg7
F3.2
ss(S'A029'
p3408
S'R082'
p3409
S'28 ST-BROADWAY'
p3410
tp3411
(dp3412
g6
F12763.2
sg7
F10859.2
ss(S'R210A'
p3413
S'R044'
p3414
S'BROOKLYN BRIDGE'
p3415
tp3416
(dp3417
g6
F14839.0
sg7
F13405.0
ss(S'PTH21'
p3418
S'R540'
p3419
S'PATH WTC 2'
p3420
tp3421
(dp3422
g6
F354.8
sg7
F220.4
ss(S'N322'
p3423
S'R340'
p3424
S'65 ST'
p3425
tp3426
(dp3427
g6
F793.8
sg7
F1609.8
ss(S'N300'
p3428
S'R113'
p3429
S'7 AVE-53 ST'
p3430
tp3431
(dp3432
g6
F14021.0
sg7
F14786.0
ss(S'N092'
p3433
S'R029'
p3434
S'CHAMBERS ST'
p3435
tp3436
(dp3437
g6
F57597.6
sg7
F141612.0
ss(S'N103'
p3438
S'R127'
p3439
S'JAY ST-METROTEC'
p3440
tp3441
(dp3442
g6
F75385.6
sg7
F-27216188.8
ss(S'H007'
p3443
S'R248'
p3444
S'1 AVE'
p3445
tp3446
(dp3447
g6
F10984.0
sg7
F18704.0
ss(S'R260'
p3448
S'R205'
p3449
S'149 ST-GR CONC'
p3450
tp3451
(dp3452
g6
F1202.4
sg7
F4388.0
ss(S'R604'
p3453
S'R108'
p3454
S'BOROUGH HALL/CT'
p3455
tp3456
(dp3457
g6
F8037.6
sg7
F17713.2
ss(S'D009'
p3458
S'R393'
p3459
S'20 AVE'
p3460
tp3461
(dp3462
g6
F1236.6
sg7
F1353.0
ss(S'N337'
p3463
S'R255'
p3464
S'VAN WYCK BLVD'
p3465
tp3466
(dp3467
g6
F1732.8
sg7
F4881.6
ss(S'N510'
p3468
S'R163'
p3469
S'14 ST-6 AVE'
p3470
tp3471
(dp3472
g6
F10001.0
sg7
F9079.0
ss(S'N225'
p3473
S'R157'
p3474
S'NORWOOD-205 ST'
p3475
tp3476
(dp3477
g6
F753.6
sg7
F1228.8
ss(S'N408A'
p3478
S'R256'
p3479
S'NASSAU AV'
p3480
tp3481
(dp3482
g6
F7585.2
sg7
F21101.4
ss(S'A035'
p3483
S'R170'
p3484
S'14 ST-UNION SQ'
p3485
tp3486
(dp3487
g6
F16367.0
sg7
F18829.0
ss(S'R242'
p3488
S'R049'
p3489
S'51 ST'
p3490
tp3491
(dp3492
g6
F45766.8
sg7
F56752.2
ss(S'R253'
p3493
S'R181'
p3494
S'110 ST'
p3495
tp3496
(dp3497
g6
F3161.4
sg7
F3955.8
ss(S'R643'
p3498
S'R135'
p3499
S'NEWKIRK AVE'
p3500
tp3501
(dp3502
g6
F333.6
sg7
F3654.4
ss(S'N009'
p3503
S'R174'
p3504
S'181 ST'
p3505
tp3506
(dp3507
g6
F1703.4
sg7
F2536.8
ss(S'B032'
p3508
S'R264'
p3509
S'OCEAN PARKWAY'
p3510
tp3511
(dp3512
g6
F765.0
sg7
F1501.2
ss(S'R261'
p3513
S'R205'
p3514
S'149 ST-GR CONC'
p3515
tp3516
(dp3517
g6
F6688.8
sg7
F8409.6
ss(S'R293'
p3518
S'R133'
p3519
S'MOSHOLU PARKWAY'
p3520
tp3521
(dp3522
g6
F4318.2
sg7
F15237.0
ss(S'N550'
p3523
S'R242'
p3524
S'18 AVE'
p3525
tp3526
(dp3527
g6
F353.6
sg7
F582.4
ss(S'C014'
p3528
S'R246'
p3529
S'PROSPECT AVE'
p3530
tp3531
(dp3532
g6
F971.4
sg7
F2795.4
ss(S'G011'
p3533
S'R312'
p3534
S'W 8 ST-AQUARIUM'
p3535
tp3536
(dp3537
g6
F2694.4
sg7
F2417.6
ss(S'R636'
p3538
S'R209'
p3539
S'STERLING ST'
p3540
tp3541
(dp3542
g6
F1381.2
sg7
F2917.8
ss(S'N500'
p3543
S'R020'
p3544
S'47-50 ST-ROCK'
p3545
tp3546
(dp3547
g6
F248679.2
sg7
F252694.4
ss(S'R520'
p3548
S'R223'
p3549
S'46 ST-BLISS ST'
p3550
tp3551
(dp3552
g6
F435.2
sg7
F4215.2
ss(S'H001'
p3553
S'R175'
p3554
S'8 AVE'
p3555
tp3556
(dp3557
g6
F55394.4
sg7
F114705.6
ss(S'PTH03'
p3558
S'R552'
p3559
S'JOURNAL SQUARE'
p3560
tp3561
(dp3562
g6
F22256.4
sg7
F31943.0
ss(S'N532'
p3563
S'R129'
p3564
S'BERGEN ST'
p3565
tp3566
(dp3567
g6
F955.2
sg7
F3334.8
ss(S'N521'
p3568
S'R300'
p3569
S'2 AVE'
p3570
tp3571
(dp3572
g6
F8199.6
sg7
F11588.4
ss(S'R504'
p3573
S'R276'
p3574
S'VERNON/JACKSON'
p3575
tp3576
(dp3577
g6
F2639.2
sg7
F7184.0
ss(S'TRAM1'
p3578
S'R468'
p3579
S'RIT-MANHATTAN'
p3580
tp3581
(dp3582
g6
F60.8
sg7
F7204.8
ss(S'A025'
p3583
S'R023'
p3584
S'34 ST-HERALD SQ'
p3585
tp3586
(dp3587
g6
F96918.0
sg7
F85388.0
ss(S'R240'
p3588
S'R047'
p3589
S'42 ST-GRD CNTRL'
p3590
tp3591
(dp3592
g6
F128559.2
sg7
F207244.4
ss(S'B014'
p3593
S'R148'
p3594
S'PARKSIDE AVE'
p3595
tp3596
(dp3597
g6
F1162.8
sg7
F2456.4
ss(S'J017'
p3598
S'R432'
p3599
S'CHAUNCEY ST'
p3600
tp3601
(dp3602
g6
F459.0
sg7
F1575.6
ss(S'R526'
p3603
S'R096'
p3604
S'82 ST-JACKSON H'
p3605
tp3606
(dp3607
g6
F29938.0
sg7
F38476.0
ss(S'R533'
p3608
S'R055'
p3609
S'MAIN ST'
p3610
tp3611
(dp3612
g6
F85158.4
sg7
F151206.4
ss(S'N086'
p3613
S'R282'
p3614
S'SPRING ST'
p3615
tp3616
(dp3617
g6
F2307.6
sg7
F14224.8
ss(S'N605'
p3618
S'R024'
p3619
S'SUTPHIN BLVD'
p3620
tp3621
(dp3622
g6
F45172.4
sg7
F66396.2
ss(S'N303'
p3623
S'R015'
p3624
S'5 AVE-53 ST'
p3625
tp3626
(dp3627
g6
F45076.8
sg7
F60432.0
ss.